
no_more_traps      檔案格式 elf64-x86-64


.text 區段的反組譯：

00000000004000b0 <_start>:
  4000b0:	48 01 d7             	add    rdi,rdx
  4000b3:	48 85 f7             	test   rdi,rsi
  4000b6:	f8                   	clc    
  4000b7:	48 09 fa             	or     rdx,rdi
  4000ba:	90                   	nop
  4000bb:	48 f7 ea             	imul   rdx
  4000be:	f8                   	clc    
  4000bf:	48 89 f7             	mov    rdi,rsi
  4000c2:	fc                   	cld    
  4000c3:	48 f7 e6             	mul    rsi
  4000c6:	cc                   	int3   
  4000c7:	89 df                	mov    edi,ebx
  4000c9:	48 ff ce             	dec    rsi
  4000cc:	90                   	nop
  4000cd:	51                   	push   rcx
  4000ce:	48 c7 c0 66 00 00 00 	mov    rax,0x66
  4000d5:	0f 05                	syscall 
  4000d7:	cc                   	int3   
  4000d8:	48 09 ff             	or     rdi,rdi
  4000db:	90                   	nop
  4000dc:	f8                   	clc    
  4000dd:	48 ff c2             	inc    rdx
  4000e0:	48 f7 d8             	neg    rax
  4000e3:	fd                   	std    
  4000e4:	cc                   	int3   
  4000e5:	f7 e7                	mul    edi
  4000e7:	48 f7 da             	neg    rdx
  4000ea:	f8                   	clc    
  4000eb:	cc                   	int3   
  4000ec:	f7 da                	neg    edx
  4000ee:	f9                   	stc    
  4000ef:	f9                   	stc    
  4000f0:	f8                   	clc    
  4000f1:	fc                   	cld    
  4000f2:	90                   	nop
  4000f3:	fc                   	cld    
  4000f4:	51                   	push   rcx
  4000f5:	48 c7 c0 6e 00 00 00 	mov    rax,0x6e
  4000fc:	0f 05                	syscall 
  4000fe:	59                   	pop    rcx
  4000ff:	51                   	push   rcx
  400100:	48 c7 c0 6f 00 00 00 	mov    rax,0x6f
  400107:	0f 05                	syscall 
  400109:	59                   	pop    rcx
  40010a:	cc                   	int3   
  40010b:	ff cf                	dec    edi
  40010d:	f8                   	clc    
  40010e:	48 89 c3             	mov    rbx,rax
  400111:	48 ff cf             	dec    rdi
  400114:	48 39 f2             	cmp    rdx,rsi
  400117:	48 f7 ef             	imul   rdi
  40011a:	c6 04 25 a8 71 62 00 	mov    BYTE PTR ds:0x6271a8,0x66
  400121:	66 
  400122:	f9                   	stc    
  400123:	48 89 c6             	mov    rsi,rax
  400126:	48 ff ca             	dec    rdx
  400129:	90                   	nop
  40012a:	f9                   	stc    
  40012b:	48 f7 e0             	mul    rax
  40012e:	fc                   	cld    
  40012f:	f8                   	clc    
  400130:	51                   	push   rcx
  400131:	48 c7 c0 6c 00 00 00 	mov    rax,0x6c
  400138:	cc                   	int3   
  400139:	05 59 48 f7 eb       	add    eax,0xebf74859
  40013e:	48 85 f0             	test   rax,rsi
  400141:	48 f7 df             	neg    rdi
  400144:	48 85 d0             	test   rax,rdx
  400147:	f9                   	stc    
  400148:	f8                   	clc    
  400149:	48 29 d6             	sub    rsi,rdx
  40014c:	fd                   	std    
  40014d:	fc                   	cld    
  40014e:	f9                   	stc    
  40014f:	fd                   	std    
  400150:	90                   	nop
  400151:	48 29 c6             	sub    rsi,rax
  400154:	48 09 f7             	or     rdi,rsi
  400157:	48 f7 e2             	mul    rdx
  40015a:	48 01 d0             	add    rax,rdx
  40015d:	48 ff c8             	dec    rax
  400160:	f9                   	stc    
  400161:	fd                   	std    
  400162:	90                   	nop
  400163:	48 89 c3             	mov    rbx,rax
  400166:	fc                   	cld    
  400167:	48 f7 ef             	imul   rdi
  40016a:	fd                   	std    
  40016b:	f9                   	stc    
  40016c:	51                   	push   rcx
  40016d:	48 c7 c0 6b 00 00 00 	mov    rax,0x6b
  400174:	0f 05                	syscall 
  400176:	59                   	pop    rcx
  400177:	48 89 ff             	mov    rdi,rdi
  40017a:	90                   	nop
  40017b:	fd                   	std    
  40017c:	48 ff ca             	dec    rdx
  40017f:	48 f7 eb             	imul   rbx
  400182:	cc                   	int3   
  400183:	09 de                	or     esi,ebx
  400185:	48 ff c6             	inc    rsi
  400188:	cc                   	int3   
  400189:	29 fa                	sub    edx,edi
  40018b:	90                   	nop
  40018c:	c6 04 25 ad 71 62 00 	mov    BYTE PTR ds:0x6271ad,0xfa
  400193:	fa 
  400194:	48 f7 e3             	mul    rbx
  400197:	48 89 de             	mov    rsi,rbx
  40019a:	f8                   	clc    
  40019b:	48 f7 e3             	mul    rbx
  40019e:	48 01 fe             	add    rsi,rdi
  4001a1:	48 31 df             	xor    rdi,rbx
  4001a4:	48 f7 da             	neg    rdx
  4001a7:	48 85 c0             	test   rax,rax
  4001aa:	48 31 d6             	xor    rsi,rdx
  4001ad:	fc                   	cld    
  4001ae:	48 f7 da             	neg    rdx
  4001b1:	cc                   	int3   
  4001b2:	48 21 fa             	and    rdx,rdi
  4001b5:	48 ff ca             	dec    rdx
  4001b8:	f8                   	clc    
  4001b9:	fd                   	std    
  4001ba:	48 f7 e8             	imul   rax
  4001bd:	51                   	push   rcx
  4001be:	48 c7 c0 27 00 00 00 	mov    rax,0x27
  4001c5:	0f 05                	syscall 
  4001c7:	59                   	pop    rcx
  4001c8:	cc                   	int3   
  4001c9:	ff c3                	inc    ebx
  4001cb:	48 09 c0             	or     rax,rax
  4001ce:	48 ff ca             	dec    rdx
  4001d1:	fd                   	std    
  4001d2:	48 f7 db             	neg    rbx
  4001d5:	48 ff cf             	dec    rdi
  4001d8:	48 ff cb             	dec    rbx
  4001db:	48 29 f6             	sub    rsi,rsi
  4001de:	48 31 f0             	xor    rax,rsi
  4001e1:	cc                   	int3   
  4001e2:	f7 e6                	mul    esi
  4001e4:	48 85 fb             	test   rbx,rdi
  4001e7:	48 ff ca             	dec    rdx
  4001ea:	48 f7 d8             	neg    rax
  4001ed:	cc                   	int3   
  4001ee:	51                   	push   rcx
  4001ef:	48 c7 c0 68 00 00 00 	mov    rax,0x68
  4001f6:	0f 05                	syscall 
  4001f8:	59                   	pop    rcx
  4001f9:	48 f7 df             	neg    rdi
  4001fc:	48 ff c3             	inc    rbx
  4001ff:	fc                   	cld    
  400200:	f8                   	clc    
  400201:	48 f7 e3             	mul    rbx
  400204:	48 87 d2             	xchg   rdx,rdx
  400207:	f8                   	clc    
  400208:	90                   	nop
  400209:	48 31 fb             	xor    rbx,rdi
  40020c:	48 21 c7             	and    rdi,rax
  40020f:	fc                   	cld    
  400210:	48 21 fb             	and    rbx,rdi
  400213:	c6 04 25 d0 71 62 00 	mov    BYTE PTR ds:0x6271d0,0x41
  40021a:	41 
  40021b:	48 ff ca             	dec    rdx
  40021e:	48 ff cb             	dec    rbx
  400221:	48 85 ff             	test   rdi,rdi
  400224:	fd                   	std    
  400225:	48 f7 e6             	mul    rsi
  400228:	fc                   	cld    
  400229:	cc                   	int3   
  40022a:	01 db                	add    ebx,ebx
  40022c:	cc                   	int3   
  40022d:	48 96                	xchg   rsi,rax
  40022f:	fd                   	std    
  400230:	48 85 de             	test   rsi,rbx
  400233:	48 f7 ef             	imul   rdi
  400236:	fc                   	cld    
  400237:	90                   	nop
  400238:	48 01 f7             	add    rdi,rsi
  40023b:	48 ff c7             	inc    rdi
  40023e:	48 ff c8             	dec    rax
  400241:	48 f7 e7             	mul    rdi
  400244:	48 f7 da             	neg    rdx
  400247:	48 f7 e0             	mul    rax
  40024a:	51                   	push   rcx
  40024b:	cc                   	int3   
  40024c:	c7 c0 6f 00 00 00    	mov    eax,0x6f
  400252:	0f 05                	syscall 
  400254:	59                   	pop    rcx
  400255:	48 f7 e6             	mul    rsi
  400258:	48 ff ca             	dec    rdx
  40025b:	cc                   	int3   
  40025c:	01 ff                	add    edi,edi
  40025e:	cc                   	int3   
  40025f:	48 01 f0             	add    rax,rsi
  400262:	fc                   	cld    
  400263:	48 01 f3             	add    rbx,rsi
  400266:	fc                   	cld    
  400267:	48 ff c0             	inc    rax
  40026a:	f9                   	stc    
  40026b:	48 ff c6             	inc    rsi
  40026e:	48 09 c0             	or     rax,rax
  400271:	48 f7 ee             	imul   rsi
  400274:	fd                   	std    
  400275:	48 87 fe             	xchg   rsi,rdi
  400278:	48 31 d3             	xor    rbx,rdx
  40027b:	48 f7 db             	neg    rbx
  40027e:	48 ff c7             	inc    rdi
  400281:	48 09 f7             	or     rdi,rsi
  400284:	cc                   	int3   
  400285:	f8                   	clc    
  400286:	51                   	push   rcx
  400287:	48 c7 c0 27 00 00 00 	mov    rax,0x27
  40028e:	0f 05                	syscall 
  400290:	59                   	pop    rcx
  400291:	48 ff cf             	dec    rdi
  400294:	48 31 c7             	xor    rdi,rax
  400297:	cc                   	int3   
  400298:	01 de                	add    esi,ebx
  40029a:	fd                   	std    
  40029b:	48 ff c0             	inc    rax
  40029e:	48 01 fe             	add    rsi,rdi
  4002a1:	48 ff c2             	inc    rdx
  4002a4:	48 21 f2             	and    rdx,rsi
  4002a7:	48 ff ca             	dec    rdx
  4002aa:	48 f7 ef             	imul   rdi
  4002ad:	48 09 d7             	or     rdi,rdx
  4002b0:	fc                   	cld    
  4002b1:	90                   	nop
  4002b2:	cc                   	int3   
  4002b3:	29 fa                	sub    edx,edi
  4002b5:	f9                   	stc    
  4002b6:	48 39 fb             	cmp    rbx,rdi
  4002b9:	fc                   	cld    
  4002ba:	fc                   	cld    
  4002bb:	48 39 f2             	cmp    rdx,rsi
  4002be:	48 f7 e8             	imul   rax
  4002c1:	48 89 d0             	mov    rax,rdx
  4002c4:	48 ff ca             	dec    rdx
  4002c7:	cc                   	int3   
  4002c8:	48 21 df             	and    rdi,rbx
  4002cb:	48 ff c0             	inc    rax
  4002ce:	cc                   	int3   
  4002cf:	fc                   	cld    
  4002d0:	fc                   	cld    
  4002d1:	48 97                	xchg   rdi,rax
  4002d3:	48 ff c0             	inc    rax
  4002d6:	48 f7 e3             	mul    rbx
  4002d9:	fd                   	std    
  4002da:	48 39 d0             	cmp    rax,rdx
  4002dd:	48 21 d2             	and    rdx,rdx
  4002e0:	48 01 fe             	add    rsi,rdi
  4002e3:	48 85 d3             	test   rbx,rdx
  4002e6:	c6 04 25 a6 71 62 00 	mov    BYTE PTR ds:0x6271a6,0x76
  4002ed:	76 
  4002ee:	51                   	push   rcx
  4002ef:	48 c7 c0 18 00 00 00 	mov    rax,0x18
  4002f6:	0f 05                	syscall 
  4002f8:	59                   	pop    rcx
  4002f9:	48 09 c3             	or     rbx,rax
  4002fc:	f8                   	clc    
  4002fd:	f8                   	clc    
  4002fe:	f9                   	stc    
  4002ff:	fd                   	std    
  400300:	48 f7 ef             	imul   rdi
  400303:	48 f7 de             	neg    rsi
  400306:	48 ff cf             	dec    rdi
  400309:	48 87 ff             	xchg   rdi,rdi
  40030c:	51                   	push   rcx
  40030d:	48 c7 c0 6f 00 00 00 	mov    rax,0x6f
  400314:	0f 05                	syscall 
  400316:	59                   	pop    rcx
  400317:	fc                   	cld    
  400318:	48 31 d7             	xor    rdi,rdx
  40031b:	fd                   	std    
  40031c:	48 01 c2             	add    rdx,rax
  40031f:	cc                   	int3   
  400320:	c6 04 25 9a 71 62 00 	mov    BYTE PTR ds:0x62719a,0x1b
  400327:	1b 
  400328:	48 85 d0             	test   rax,rdx
  40032b:	48 89 c6             	mov    rsi,rax
  40032e:	48 89 fa             	mov    rdx,rdi
  400331:	fd                   	std    
  400332:	90                   	nop
  400333:	48 89 ff             	mov    rdi,rdi
  400336:	48 39 da             	cmp    rdx,rbx
  400339:	cc                   	int3   
  40033a:	ff ca                	dec    edx
  40033c:	48 29 f7             	sub    rdi,rsi
  40033f:	f9                   	stc    
  400340:	48 85 c3             	test   rbx,rax
  400343:	48 f7 e3             	mul    rbx
  400346:	cc                   	int3   
  400347:	cc                   	int3   
  400348:	01 c2                	add    edx,eax
  40034a:	48 f7 df             	neg    rdi
  40034d:	48 f7 e0             	mul    rax
  400350:	fd                   	std    
  400351:	48 92                	xchg   rdx,rax
  400353:	cc                   	int3   
  400354:	48 f7 eb             	imul   rbx
  400357:	fd                   	std    
  400358:	cc                   	int3   
  400359:	f7 eb                	imul   ebx
  40035b:	cc                   	int3   
  40035c:	f7 e8                	imul   eax
  40035e:	48 f7 db             	neg    rbx
  400361:	48 f7 e8             	imul   rax
  400364:	cc                   	int3   
  400365:	f7 db                	neg    ebx
  400367:	f9                   	stc    
  400368:	51                   	push   rcx
  400369:	48 c7 c0 66 00 00 00 	mov    rax,0x66
  400370:	0f 05                	syscall 
  400372:	59                   	pop    rcx
  400373:	c6 04 25 a7 71 62 00 	mov    BYTE PTR ds:0x6271a7,0xc1
  40037a:	c1 
  40037b:	48 f7 e0             	mul    rax
  40037e:	f8                   	clc    
  40037f:	f9                   	stc    
  400380:	f8                   	clc    
  400381:	48 01 f2             	add    rdx,rsi
  400384:	48 29 c0             	sub    rax,rax
  400387:	48 85 f8             	test   rax,rdi
  40038a:	48 ff ca             	dec    rdx
  40038d:	c6 04 25 bb 71 62 00 	mov    BYTE PTR ds:0x6271bb,0xd1
  400394:	d1 
  400395:	48 f7 db             	neg    rbx
  400398:	48 89 de             	mov    rsi,rbx
  40039b:	f9                   	stc    
  40039c:	48 09 d0             	or     rax,rdx
  40039f:	f8                   	clc    
  4003a0:	48 21 f8             	and    rax,rdi
  4003a3:	48 ff c6             	inc    rsi
  4003a6:	48 ff c8             	dec    rax
  4003a9:	48 89 f0             	mov    rax,rsi
  4003ac:	48 09 d8             	or     rax,rbx
  4003af:	48 ff c3             	inc    rbx
  4003b2:	48 31 f0             	xor    rax,rsi
  4003b5:	c6 04 25 d1 71 62 00 	mov    BYTE PTR ds:0x6271d1,0x53
  4003bc:	53 
  4003bd:	c6 04 25 c9 71 62 00 	mov    BYTE PTR ds:0x6271c9,0x20
  4003c4:	20 
  4003c5:	48 ff c3             	inc    rbx
  4003c8:	48 87 d2             	xchg   rdx,rdx
  4003cb:	48 f7 e2             	mul    rdx
  4003ce:	f8                   	clc    
  4003cf:	48 89 c6             	mov    rsi,rax
  4003d2:	48 01 d0             	add    rax,rdx
  4003d5:	48 f7 ef             	imul   rdi
  4003d8:	48 f7 e3             	mul    rbx
  4003db:	90                   	nop
  4003dc:	48 f7 e0             	mul    rax
  4003df:	cc                   	int3   
  4003e0:	39 f3                	cmp    ebx,esi
  4003e2:	cc                   	int3   
  4003e3:	87 f2                	xchg   edx,esi
  4003e5:	c6 04 25 c8 71 62 00 	mov    BYTE PTR ds:0x6271c8,0x97
  4003ec:	97 
  4003ed:	c6 04 25 98 71 62 00 	mov    BYTE PTR ds:0x627198,0xb2
  4003f4:	b2 
  4003f5:	51                   	push   rcx
  4003f6:	cc                   	int3   
  4003f7:	c7 c0 18 00 00 00    	mov    eax,0x18
  4003fd:	0f 05                	syscall 
  4003ff:	59                   	pop    rcx
  400400:	48 ff c6             	inc    rsi
  400403:	fd                   	std    
  400404:	cc                   	int3   
  400405:	f7 e7                	mul    edi
  400407:	f8                   	clc    
  400408:	48 09 d2             	or     rdx,rdx
  40040b:	48 89 fa             	mov    rdx,rdi
  40040e:	48 ff c3             	inc    rbx
  400411:	48 39 c3             	cmp    rbx,rax
  400414:	48 ff c6             	inc    rsi
  400417:	48 85 d0             	test   rax,rdx
  40041a:	f9                   	stc    
  40041b:	f8                   	clc    
  40041c:	fc                   	cld    
  40041d:	48 f7 ee             	imul   rsi
  400420:	48 39 da             	cmp    rdx,rbx
  400423:	48 ff ce             	dec    rsi
  400426:	f8                   	clc    
  400427:	48 31 db             	xor    rbx,rbx
  40042a:	48 39 d6             	cmp    rsi,rdx
  40042d:	fd                   	std    
  40042e:	48 21 fe             	and    rsi,rdi
  400431:	48 f7 e6             	mul    rsi
  400434:	48 39 c7             	cmp    rdi,rax
  400437:	cc                   	int3   
  400438:	09 f7                	or     edi,esi
  40043a:	cc                   	int3   
  40043b:	f7 e8                	imul   eax
  40043d:	48 f7 eb             	imul   rbx
  400440:	f9                   	stc    
  400441:	cc                   	int3   
  400442:	48 29 f8             	sub    rax,rdi
  400445:	f9                   	stc    
  400446:	cc                   	int3   
  400447:	89 c3                	mov    ebx,eax
  400449:	f8                   	clc    
  40044a:	48 f7 ee             	imul   rsi
  40044d:	c6 04 25 d2 71 62 00 	mov    BYTE PTR ds:0x6271d2,0x4d
  400454:	4d 
  400455:	c6 04 25 ce 71 62 00 	mov    BYTE PTR ds:0x6271ce,0x9d
  40045c:	9d 
  40045d:	48 09 fe             	or     rsi,rdi
  400460:	cc                   	int3   
  400461:	87 db                	xchg   ebx,ebx
  400463:	fc                   	cld    
  400464:	48 29 d0             	sub    rax,rdx
  400467:	48 ff c6             	inc    rsi
  40046a:	cc                   	int3   
  40046b:	48 31 f8             	xor    rax,rdi
  40046e:	48 31 ff             	xor    rdi,rdi
  400471:	fc                   	cld    
  400472:	48 87 ff             	xchg   rdi,rdi
  400475:	48 01 d3             	add    rbx,rdx
  400478:	48 f7 eb             	imul   rbx
  40047b:	48 01 c3             	add    rbx,rax
  40047e:	51                   	push   rcx
  40047f:	48 c7 c0 68 00 00 00 	mov    rax,0x68
  400486:	cc                   	int3   
  400487:	05 59 fc 48 ff       	add    eax,0xff48fc59
  40048c:	c3                   	ret    
  40048d:	48 31 de             	xor    rsi,rbx
  400490:	fd                   	std    
  400491:	48 85 c0             	test   rax,rax
  400494:	f8                   	clc    
  400495:	48 31 f6             	xor    rsi,rsi
  400498:	48 09 f0             	or     rax,rsi
  40049b:	48 85 d2             	test   rdx,rdx
  40049e:	90                   	nop
  40049f:	48 f7 e2             	mul    rdx
  4004a2:	48 ff c3             	inc    rbx
  4004a5:	51                   	push   rcx
  4004a6:	48 c7 c0 18 00 00 00 	mov    rax,0x18
  4004ad:	0f 05                	syscall 
  4004af:	59                   	pop    rcx
  4004b0:	c6 04 25 d3 71 62 00 	mov    BYTE PTR ds:0x6271d3,0x7b
  4004b7:	7b 
  4004b8:	48 89 d6             	mov    rsi,rdx
  4004bb:	51                   	push   rcx
  4004bc:	48 c7 c0 18 00 00 00 	mov    rax,0x18
  4004c3:	0f 05                	syscall 
  4004c5:	59                   	pop    rcx
  4004c6:	51                   	push   rcx
  4004c7:	48 c7 c0 68 00 00 00 	mov    rax,0x68
  4004ce:	0f 05                	syscall 
  4004d0:	59                   	pop    rcx
  4004d1:	fc                   	cld    
  4004d2:	f9                   	stc    
  4004d3:	cc                   	int3   
  4004d4:	31 da                	xor    edx,ebx
  4004d6:	48 f7 de             	neg    rsi
  4004d9:	48 09 d8             	or     rax,rbx
  4004dc:	48 09 d3             	or     rbx,rdx
  4004df:	c6 04 25 c9 71 62 00 	mov    BYTE PTR ds:0x6271c9,0x83
  4004e6:	83 
  4004e7:	f9                   	stc    
  4004e8:	90                   	nop
  4004e9:	fd                   	std    
  4004ea:	48 39 fe             	cmp    rsi,rdi
  4004ed:	fd                   	std    
  4004ee:	48 39 fa             	cmp    rdx,rdi
  4004f1:	48 f7 e8             	imul   rax
  4004f4:	48 09 d6             	or     rsi,rdx
  4004f7:	f8                   	clc    
  4004f8:	48 39 fe             	cmp    rsi,rdi
  4004fb:	48 f7 e0             	mul    rax
  4004fe:	48 ff c7             	inc    rdi
  400501:	90                   	nop
  400502:	48 09 fa             	or     rdx,rdi
  400505:	f9                   	stc    
  400506:	90                   	nop
  400507:	fc                   	cld    
  400508:	fd                   	std    
  400509:	cc                   	int3   
  40050a:	fc                   	cld    
  40050b:	cc                   	int3   
  40050c:	87 ff                	xchg   edi,edi
  40050e:	48 f7 e8             	imul   rax
  400511:	48 85 d6             	test   rsi,rdx
  400514:	48 21 d0             	and    rax,rdx
  400517:	f8                   	clc    
  400518:	f8                   	clc    
  400519:	51                   	push   rcx
  40051a:	48 c7 c0 6c 00 00 00 	mov    rax,0x6c
  400521:	0f 05                	syscall 
  400523:	59                   	pop    rcx
  400524:	48 ff cb             	dec    rbx
  400527:	48 f7 e6             	mul    rsi
  40052a:	48 ff c7             	inc    rdi
  40052d:	48 f7 eb             	imul   rbx
  400530:	f8                   	clc    
  400531:	51                   	push   rcx
  400532:	48 c7 c0 66 00 00 00 	mov    rax,0x66
  400539:	0f 05                	syscall 
  40053b:	59                   	pop    rcx
  40053c:	48 85 f6             	test   rsi,rsi
  40053f:	48 f7 d8             	neg    rax
  400542:	48 87 fa             	xchg   rdx,rdi
  400545:	48 31 c7             	xor    rdi,rax
  400548:	51                   	push   rcx
  400549:	cc                   	int3   
  40054a:	c7 c0 68 00 00 00    	mov    eax,0x68
  400550:	0f 05                	syscall 
  400552:	59                   	pop    rcx
  400553:	48 29 de             	sub    rsi,rbx
  400556:	cc                   	int3   
  400557:	48 c7 c0 68 00 00 00 	mov    rax,0x68
  40055e:	0f 05                	syscall 
  400560:	59                   	pop    rcx
  400561:	48 ff c8             	dec    rax
  400564:	48 85 c7             	test   rdi,rax
  400567:	f8                   	clc    
  400568:	48 f7 e3             	mul    rbx
  40056b:	51                   	push   rcx
  40056c:	48 c7 c0 68 00 00 00 	mov    rax,0x68
  400573:	0f 05                	syscall 
  400575:	cc                   	int3   
  400576:	48 ff ce             	dec    rsi
  400579:	48 89 c0             	mov    rax,rax
  40057c:	48 ff cf             	dec    rdi
  40057f:	fd                   	std    
  400580:	48 f7 da             	neg    rdx
  400583:	cc                   	int3   
  400584:	f7 da                	neg    edx
  400586:	c6 04 25 d4 71 62 00 	mov    BYTE PTR ds:0x6271d4,0x75
  40058d:	75 
  40058e:	cc                   	int3   
  40058f:	21 da                	and    edx,ebx
  400591:	51                   	push   rcx
  400592:	48 c7 c0 68 00 00 00 	mov    rax,0x68
  400599:	0f 05                	syscall 
  40059b:	cc                   	int3   
  40059c:	48 ff c6             	inc    rsi
  40059f:	48 21 f0             	and    rax,rsi
  4005a2:	48 39 da             	cmp    rdx,rbx
  4005a5:	48 31 f7             	xor    rdi,rsi
  4005a8:	51                   	push   rcx
  4005a9:	48 c7 c0 6e 00 00 00 	mov    rax,0x6e
  4005b0:	0f 05                	syscall 
  4005b2:	59                   	pop    rcx
  4005b3:	48 31 fe             	xor    rsi,rdi
  4005b6:	48 f7 e0             	mul    rax
  4005b9:	48 f7 ea             	imul   rdx
  4005bc:	c6 04 25 d5 71 62 00 	mov    BYTE PTR ds:0x6271d5,0x5f
  4005c3:	5f 
  4005c4:	cc                   	int3   
  4005c5:	85 de                	test   esi,ebx
  4005c7:	48 ff c7             	inc    rdi
  4005ca:	48 29 d2             	sub    rdx,rdx
  4005cd:	48 01 de             	add    rsi,rbx
  4005d0:	48 39 d7             	cmp    rdi,rdx
  4005d3:	fc                   	cld    
  4005d4:	f9                   	stc    
  4005d5:	48 39 d7             	cmp    rdi,rdx
  4005d8:	48 89 fb             	mov    rbx,rdi
  4005db:	48 f7 e2             	mul    rdx
  4005de:	48 21 df             	and    rdi,rbx
  4005e1:	cc                   	int3   
  4005e2:	29 f2                	sub    edx,esi
  4005e4:	48 09 fb             	or     rbx,rdi
  4005e7:	48 ff ca             	dec    rdx
  4005ea:	48 39 d8             	cmp    rax,rbx
  4005ed:	48 ff c6             	inc    rsi
  4005f0:	48 85 de             	test   rsi,rbx
  4005f3:	cc                   	int3   
  4005f4:	fd                   	std    
  4005f5:	cc                   	int3   
  4005f6:	fc                   	cld    
  4005f7:	48 39 fe             	cmp    rsi,rdi
  4005fa:	90                   	nop
  4005fb:	48 f7 e3             	mul    rbx
  4005fe:	90                   	nop
  4005ff:	48 09 c0             	or     rax,rax
  400602:	90                   	nop
  400603:	48 f7 db             	neg    rbx
  400606:	fd                   	std    
  400607:	48 39 c7             	cmp    rdi,rax
  40060a:	48 29 f2             	sub    rdx,rsi
  40060d:	48 f7 ea             	imul   rdx
  400610:	fc                   	cld    
  400611:	48 85 d3             	test   rbx,rdx
  400614:	c6 04 25 94 71 62 00 	mov    BYTE PTR ds:0x627194,0xde
  40061b:	de 
  40061c:	fd                   	std    
  40061d:	48 f7 ea             	imul   rdx
  400620:	cc                   	int3   
  400621:	89 d3                	mov    ebx,edx
  400623:	48 85 df             	test   rdi,rbx
  400626:	c6 04 25 98 71 62 00 	mov    BYTE PTR ds:0x627198,0x26
  40062d:	26 
  40062e:	c6 04 25 d6 71 62 00 	mov    BYTE PTR ds:0x6271d6,0x68
  400635:	68 
  400636:	48 87 df             	xchg   rdi,rbx
  400639:	48 21 f2             	and    rdx,rsi
  40063c:	48 89 f8             	mov    rax,rdi
  40063f:	48 ff c2             	inc    rdx
  400642:	51                   	push   rcx
  400643:	48 c7 c0 6f 00 00 00 	mov    rax,0x6f
  40064a:	0f 05                	syscall 
  40064c:	59                   	pop    rcx
  40064d:	48 89 ff             	mov    rdi,rdi
  400650:	48 29 f3             	sub    rbx,rsi
  400653:	48 01 c7             	add    rdi,rax
  400656:	fd                   	std    
  400657:	48 01 fe             	add    rsi,rdi
  40065a:	90                   	nop
  40065b:	cc                   	int3   
  40065c:	21 f7                	and    edi,esi
  40065e:	48 f7 e3             	mul    rbx
  400661:	48 f7 e6             	mul    rsi
  400664:	48 ff ca             	dec    rdx
  400667:	fd                   	std    
  400668:	48 31 f7             	xor    rdi,rsi
  40066b:	48 87 fa             	xchg   rdx,rdi
  40066e:	f9                   	stc    
  40066f:	f9                   	stc    
  400670:	cc                   	int3   
  400671:	48 01 fa             	add    rdx,rdi
  400674:	48 96                	xchg   rsi,rax
  400676:	48 f7 de             	neg    rsi
  400679:	48 f7 e6             	mul    rsi
  40067c:	48 ff c0             	inc    rax
  40067f:	48 f7 ea             	imul   rdx
  400682:	cc                   	int3   
  400683:	48 f7 e2             	mul    rdx
  400686:	cc                   	int3   
  400687:	f9                   	stc    
  400688:	48 39 db             	cmp    rbx,rbx
  40068b:	48 ff cf             	dec    rdi
  40068e:	48 ff ca             	dec    rdx
  400691:	51                   	push   rcx
  400692:	48 c7 c0 6e 00 00 00 	mov    rax,0x6e
  400699:	0f 05                	syscall 
  40069b:	59                   	pop    rcx
  40069c:	51                   	push   rcx
  40069d:	48 c7 c0 68 00 00 00 	mov    rax,0x68
  4006a4:	0f 05                	syscall 
  4006a6:	59                   	pop    rcx
  4006a7:	fd                   	std    
  4006a8:	48 f7 e7             	mul    rdi
  4006ab:	f9                   	stc    
  4006ac:	48 89 c3             	mov    rbx,rax
  4006af:	cc                   	int3   
  4006b0:	cc                   	int3   
  4006b1:	f7 e7                	mul    edi
  4006b3:	f8                   	clc    
  4006b4:	48 39 d2             	cmp    rdx,rdx
  4006b7:	f8                   	clc    
  4006b8:	f8                   	clc    
  4006b9:	48 09 fa             	or     rdx,rdi
  4006bc:	fc                   	cld    
  4006bd:	f9                   	stc    
  4006be:	cc                   	int3   
  4006bf:	48 c7 c0 27 00 00 00 	mov    rax,0x27
  4006c6:	0f 05                	syscall 
  4006c8:	59                   	pop    rcx
  4006c9:	f9                   	stc    
  4006ca:	90                   	nop
  4006cb:	90                   	nop
  4006cc:	48 31 f0             	xor    rax,rsi
  4006cf:	51                   	push   rcx
  4006d0:	48 c7 c0 6c 00 00 00 	mov    rax,0x6c
  4006d7:	cc                   	int3   
  4006d8:	05 59 48 ff c7       	add    eax,0xc7ff4859
  4006dd:	48 31 d0             	xor    rax,rdx
  4006e0:	f9                   	stc    
  4006e1:	48 39 da             	cmp    rdx,rbx
  4006e4:	48 f7 e6             	mul    rsi
  4006e7:	48 f7 e3             	mul    rbx
  4006ea:	90                   	nop
  4006eb:	48 ff c2             	inc    rdx
  4006ee:	48 31 df             	xor    rdi,rbx
  4006f1:	48 89 da             	mov    rdx,rbx
  4006f4:	f9                   	stc    
  4006f5:	48 f7 e0             	mul    rax
  4006f8:	f9                   	stc    
  4006f9:	fd                   	std    
  4006fa:	51                   	push   rcx
  4006fb:	48 c7 c0 18 00 00 00 	mov    rax,0x18
  400702:	0f 05                	syscall 
  400704:	59                   	pop    rcx
  400705:	cc                   	int3   
  400706:	f7 df                	neg    edi
  400708:	48 f7 ef             	imul   rdi
  40070b:	fc                   	cld    
  40070c:	48 85 d8             	test   rax,rbx
  40070f:	fd                   	std    
  400710:	48 ff cb             	dec    rbx
  400713:	48 29 c6             	sub    rsi,rax
  400716:	cc                   	int3   
  400717:	90                   	nop
  400718:	f8                   	clc    
  400719:	48 85 fb             	test   rbx,rdi
  40071c:	48 01 c3             	add    rbx,rax
  40071f:	f9                   	stc    
  400720:	fc                   	cld    
  400721:	48 f7 df             	neg    rdi
  400724:	f8                   	clc    
  400725:	48 ff ce             	dec    rsi
  400728:	fd                   	std    
  400729:	cc                   	int3   
  40072a:	21 c2                	and    edx,eax
  40072c:	51                   	push   rcx
  40072d:	48 c7 c0 27 00 00 00 	mov    rax,0x27
  400734:	0f 05                	syscall 
  400736:	cc                   	int3   
  400737:	48 f7 e3             	mul    rbx
  40073a:	f8                   	clc    
  40073b:	48 09 d6             	or     rsi,rdx
  40073e:	48 ff ce             	dec    rsi
  400741:	48 f7 eb             	imul   rbx
  400744:	f8                   	clc    
  400745:	cc                   	int3   
  400746:	48 f7 e6             	mul    rsi
  400749:	f8                   	clc    
  40074a:	48 87 fe             	xchg   rsi,rdi
  40074d:	48 31 f2             	xor    rdx,rsi
  400750:	f8                   	clc    
  400751:	cc                   	int3   
  400752:	cc                   	int3   
  400753:	97                   	xchg   edi,eax
  400754:	48 f7 ef             	imul   rdi
  400757:	48 f7 ef             	imul   rdi
  40075a:	cc                   	int3   
  40075b:	f7 e7                	mul    edi
  40075d:	fd                   	std    
  40075e:	48 31 db             	xor    rbx,rbx
  400761:	fd                   	std    
  400762:	48 ff c6             	inc    rsi
  400765:	48 f7 e8             	imul   rax
  400768:	48 39 c2             	cmp    rdx,rax
  40076b:	51                   	push   rcx
  40076c:	48 c7 c0 66 00 00 00 	mov    rax,0x66
  400773:	0f 05                	syscall 
  400775:	59                   	pop    rcx
  400776:	fd                   	std    
  400777:	cc                   	int3   
  400778:	fd                   	std    
  400779:	48 87 f7             	xchg   rdi,rsi
  40077c:	48 85 f8             	test   rax,rdi
  40077f:	f8                   	clc    
  400780:	51                   	push   rcx
  400781:	48 c7 c0 6b 00 00 00 	mov    rax,0x6b
  400788:	0f 05                	syscall 
  40078a:	59                   	pop    rcx
  40078b:	48 f7 da             	neg    rdx
  40078e:	48 ff ce             	dec    rsi
  400791:	fd                   	std    
  400792:	48 f7 de             	neg    rsi
  400795:	48 f7 e8             	imul   rax
  400798:	48 f7 e6             	mul    rsi
  40079b:	f9                   	stc    
  40079c:	48 87 f3             	xchg   rbx,rsi
  40079f:	51                   	push   rcx
  4007a0:	48 c7 c0 18 00 00 00 	mov    rax,0x18
  4007a7:	cc                   	int3   
  4007a8:	05 cc 48 f7 e8       	add    eax,0xe8f748cc
  4007ad:	48 39 db             	cmp    rbx,rbx
  4007b0:	f9                   	stc    
  4007b1:	48 ff cb             	dec    rbx
  4007b4:	48 f7 e6             	mul    rsi
  4007b7:	51                   	push   rcx
  4007b8:	48 c7 c0 6c 00 00 00 	mov    rax,0x6c
  4007bf:	0f 05                	syscall 
  4007c1:	59                   	pop    rcx
  4007c2:	48 ff c7             	inc    rdi
  4007c5:	fd                   	std    
  4007c6:	48 31 f7             	xor    rdi,rsi
  4007c9:	48 09 d6             	or     rsi,rdx
  4007cc:	48 f7 db             	neg    rbx
  4007cf:	48 87 d6             	xchg   rsi,rdx
  4007d2:	fd                   	std    
  4007d3:	51                   	push   rcx
  4007d4:	48 c7 c0 68 00 00 00 	mov    rax,0x68
  4007db:	0f 05                	syscall 
  4007dd:	59                   	pop    rcx
  4007de:	48 31 f0             	xor    rax,rsi
  4007e1:	90                   	nop
  4007e2:	48 ff c6             	inc    rsi
  4007e5:	48 f7 e6             	mul    rsi
  4007e8:	48 85 f3             	test   rbx,rsi
  4007eb:	fd                   	std    
  4007ec:	fd                   	std    
  4007ed:	48 29 df             	sub    rdi,rbx
  4007f0:	48 f7 d8             	neg    rax
  4007f3:	cc                   	int3   
  4007f4:	48 01 fe             	add    rsi,rdi
  4007f7:	48 f7 db             	neg    rbx
  4007fa:	f8                   	clc    
  4007fb:	48 f7 e6             	mul    rsi
  4007fe:	48 39 f0             	cmp    rax,rsi
  400801:	f9                   	stc    
  400802:	48 92                	xchg   rdx,rax
  400804:	c6 04 25 91 71 62 00 	mov    BYTE PTR ds:0x627191,0x85
  40080b:	85 
  40080c:	48 29 f7             	sub    rdi,rsi
  40080f:	48 ff c8             	dec    rax
  400812:	48 f7 eb             	imul   rbx
  400815:	90                   	nop
  400816:	f8                   	clc    
  400817:	fc                   	cld    
  400818:	fc                   	cld    
  400819:	f9                   	stc    
  40081a:	48 ff c8             	dec    rax
  40081d:	fd                   	std    
  40081e:	48 f7 db             	neg    rbx
  400821:	fc                   	cld    
  400822:	48 39 f2             	cmp    rdx,rsi
  400825:	f8                   	clc    
  400826:	f9                   	stc    
  400827:	48 09 f2             	or     rdx,rsi
  40082a:	90                   	nop
  40082b:	48 89 c0             	mov    rax,rax
  40082e:	48 39 c6             	cmp    rsi,rax
  400831:	c6 04 25 96 71 62 00 	mov    BYTE PTR ds:0x627196,0x72
  400838:	72 
  400839:	51                   	push   rcx
  40083a:	48 c7 c0 27 00 00 00 	mov    rax,0x27
  400841:	0f 05                	syscall 
  400843:	59                   	pop    rcx
  400844:	48 85 d0             	test   rax,rdx
  400847:	fd                   	std    
  400848:	48 f7 da             	neg    rdx
  40084b:	48 85 f8             	test   rax,rdi
  40084e:	48 21 ff             	and    rdi,rdi
  400851:	cc                   	int3   
  400852:	48 f7 df             	neg    rdi
  400855:	48 01 d8             	add    rax,rbx
  400858:	fd                   	std    
  400859:	f9                   	stc    
  40085a:	f9                   	stc    
  40085b:	c6 04 25 93 71 62 00 	mov    BYTE PTR ds:0x627193,0xe7
  400862:	e7 
  400863:	fc                   	cld    
  400864:	48 09 db             	or     rbx,rbx
  400867:	48 f7 e7             	mul    rdi
  40086a:	48 ff c8             	dec    rax
  40086d:	f9                   	stc    
  40086e:	90                   	nop
  40086f:	cc                   	int3   
  400870:	f7 e6                	mul    esi
  400872:	fd                   	std    
  400873:	f8                   	clc    
  400874:	f8                   	clc    
  400875:	48 29 da             	sub    rdx,rbx
  400878:	fd                   	std    
  400879:	48 f7 ea             	imul   rdx
  40087c:	90                   	nop
  40087d:	48 39 d8             	cmp    rax,rbx
  400880:	48 f7 e0             	mul    rax
  400883:	fc                   	cld    
  400884:	48 97                	xchg   rdi,rax
  400886:	48 ff ce             	dec    rsi
  400889:	48 29 c7             	sub    rdi,rax
  40088c:	48 f7 e2             	mul    rdx
  40088f:	cc                   	int3   
  400890:	48 31 f6             	xor    rsi,rsi
  400893:	48 f7 e2             	mul    rdx
  400896:	48 ff c6             	inc    rsi
  400899:	48 29 f2             	sub    rdx,rsi
  40089c:	f8                   	clc    
  40089d:	f8                   	clc    
  40089e:	fc                   	cld    
  40089f:	cc                   	int3   
  4008a0:	39 d6                	cmp    esi,edx
  4008a2:	48 09 c3             	or     rbx,rax
  4008a5:	fd                   	std    
  4008a6:	cc                   	int3   
  4008a7:	21 fe                	and    esi,edi
  4008a9:	48 01 f2             	add    rdx,rsi
  4008ac:	48 ff cb             	dec    rbx
  4008af:	48 21 f7             	and    rdi,rsi
  4008b2:	48 f7 ef             	imul   rdi
  4008b5:	48 09 de             	or     rsi,rbx
  4008b8:	cc                   	int3   
  4008b9:	85 de                	test   esi,ebx
  4008bb:	48 87 ff             	xchg   rdi,rdi
  4008be:	48 f7 de             	neg    rsi
  4008c1:	48 85 de             	test   rsi,rbx
  4008c4:	cc                   	int3   
  4008c5:	04 25                	add    al,0x25
  4008c7:	9a                   	(bad)  
  4008c8:	71 62                	jno    40092c <_start+0x87c>
  4008ca:	00 43 cc             	add    BYTE PTR [rbx-0x34],al
  4008cd:	ff c7                	inc    edi
  4008cf:	51                   	push   rcx
  4008d0:	48 c7 c0 27 00 00 00 	mov    rax,0x27
  4008d7:	cc                   	int3   
  4008d8:	05 59 fc 48 01       	add    eax,0x148fc59
  4008dd:	fe cc                	dec    ah
  4008df:	ff ce                	dec    esi
  4008e1:	f8                   	clc    
  4008e2:	48 f7 da             	neg    rdx
  4008e5:	f8                   	clc    
  4008e6:	48 39 c0             	cmp    rax,rax
  4008e9:	f8                   	clc    
  4008ea:	48 ff c3             	inc    rbx
  4008ed:	c6 04 25 aa 71 62 00 	mov    BYTE PTR ds:0x6271aa,0xce
  4008f4:	ce 
  4008f5:	48 01 c3             	add    rbx,rax
  4008f8:	fc                   	cld    
  4008f9:	48 f7 e6             	mul    rsi
  4008fc:	48 ff c0             	inc    rax
  4008ff:	90                   	nop
  400900:	48 21 f2             	and    rdx,rsi
  400903:	48 87 f6             	xchg   rsi,rsi
  400906:	fc                   	cld    
  400907:	fd                   	std    
  400908:	f8                   	clc    
  400909:	f8                   	clc    
  40090a:	cc                   	int3   
  40090b:	c6 04 25 ba 71 62 00 	mov    BYTE PTR ds:0x6271ba,0xfc
  400912:	fc 
  400913:	48 01 f0             	add    rax,rsi
  400916:	f8                   	clc    
  400917:	48 ff ce             	dec    rsi
  40091a:	48 39 f3             	cmp    rbx,rsi
  40091d:	fd                   	std    
  40091e:	48 01 f3             	add    rbx,rsi
  400921:	48 39 ff             	cmp    rdi,rdi
  400924:	f9                   	stc    
  400925:	f8                   	clc    
  400926:	48 31 c3             	xor    rbx,rax
  400929:	48 ff c0             	inc    rax
  40092c:	f9                   	stc    
  40092d:	48 f7 df             	neg    rdi
  400930:	48 29 f7             	sub    rdi,rsi
  400933:	fc                   	cld    
  400934:	48 f7 e8             	imul   rax
  400937:	f8                   	clc    
  400938:	48 31 d0             	xor    rax,rdx
  40093b:	48 09 f3             	or     rbx,rsi
  40093e:	48 ff c2             	inc    rdx
  400941:	48 ff c7             	inc    rdi
  400944:	48 01 f8             	add    rax,rdi
  400947:	48 21 de             	and    rsi,rbx
  40094a:	fd                   	std    
  40094b:	48 31 d6             	xor    rsi,rdx
  40094e:	48 f7 db             	neg    rbx
  400951:	f9                   	stc    
  400952:	90                   	nop
  400953:	90                   	nop
  400954:	51                   	push   rcx
  400955:	48 c7 c0 18 00 00 00 	mov    rax,0x18
  40095c:	0f 05                	syscall 
  40095e:	59                   	pop    rcx
  40095f:	48 f7 e3             	mul    rbx
  400962:	f9                   	stc    
  400963:	48 21 f8             	and    rax,rdi
  400966:	48 29 fe             	sub    rsi,rdi
  400969:	48 39 f8             	cmp    rax,rdi
  40096c:	f9                   	stc    
  40096d:	cc                   	int3   
  40096e:	48 c7 c0 18 00 00 00 	mov    rax,0x18
  400975:	0f 05                	syscall 
  400977:	59                   	pop    rcx
  400978:	cc                   	int3   
  400979:	85 fa                	test   edx,edi
  40097b:	48 ff c8             	dec    rax
  40097e:	fc                   	cld    
  40097f:	48 29 c7             	sub    rdi,rax
  400982:	48 39 f7             	cmp    rdi,rsi
  400985:	48 ff c3             	inc    rbx
  400988:	cc                   	int3   
  400989:	f7 e3                	mul    ebx
  40098b:	48 29 f2             	sub    rdx,rsi
  40098e:	48 ff c0             	inc    rax
  400991:	fd                   	std    
  400992:	48 ff c6             	inc    rsi
  400995:	48 f7 e6             	mul    rsi
  400998:	c6 04 25 d7 71 62 00 	mov    BYTE PTR ds:0x6271d7,0x61
  40099f:	61 
  4009a0:	c6 04 25 93 71 62 00 	mov    BYTE PTR ds:0x627193,0xf2
  4009a7:	f2 
  4009a8:	48 31 c2             	xor    rdx,rax
  4009ab:	48 21 d2             	and    rdx,rdx
  4009ae:	48 f7 e2             	mul    rdx
  4009b1:	48 f7 e2             	mul    rdx
  4009b4:	48 f7 e2             	mul    rdx
  4009b7:	48 29 fe             	sub    rsi,rdi
  4009ba:	f9                   	stc    
  4009bb:	c6 04 25 d8 71 62 00 	mov    BYTE PTR ds:0x6271d8,0x76
  4009c2:	76 
  4009c3:	48 f7 e7             	mul    rdi
  4009c6:	48 ff c2             	inc    rdx
  4009c9:	48 01 c0             	add    rax,rax
  4009cc:	48 85 f7             	test   rdi,rsi
  4009cf:	51                   	push   rcx
  4009d0:	48 c7 c0 66 00 00 00 	mov    rax,0x66
  4009d7:	0f 05                	syscall 
  4009d9:	59                   	pop    rcx
  4009da:	48 ff ce             	dec    rsi
  4009dd:	48 85 c2             	test   rdx,rax
  4009e0:	f8                   	clc    
  4009e1:	f9                   	stc    
  4009e2:	51                   	push   rcx
  4009e3:	48 c7 c0 6f 00 00 00 	mov    rax,0x6f
  4009ea:	0f 05                	syscall 
  4009ec:	59                   	pop    rcx
  4009ed:	f9                   	stc    
  4009ee:	51                   	push   rcx
  4009ef:	48 c7 c0 27 00 00 00 	mov    rax,0x27
  4009f6:	0f 05                	syscall 
  4009f8:	59                   	pop    rcx
  4009f9:	cc                   	int3   
  4009fa:	48 c7 c0 27 00 00 00 	mov    rax,0x27
  400a01:	0f 05                	syscall 
  400a03:	59                   	pop    rcx
  400a04:	48 ff ca             	dec    rdx
  400a07:	f8                   	clc    
  400a08:	48 31 d7             	xor    rdi,rdx
  400a0b:	48 01 da             	add    rdx,rbx
  400a0e:	48 29 f7             	sub    rdi,rsi
  400a11:	cc                   	int3   
  400a12:	89 f2                	mov    edx,esi
  400a14:	48 85 f6             	test   rsi,rsi
  400a17:	f8                   	clc    
  400a18:	f8                   	clc    
  400a19:	f8                   	clc    
  400a1a:	51                   	push   rcx
  400a1b:	48 c7 c0 27 00 00 00 	mov    rax,0x27
  400a22:	0f 05                	syscall 
  400a24:	59                   	pop    rcx
  400a25:	cc                   	int3   
  400a26:	31 de                	xor    esi,ebx
  400a28:	48 39 df             	cmp    rdi,rbx
  400a2b:	48 21 d8             	and    rax,rbx
  400a2e:	48 ff c8             	dec    rax
  400a31:	48 ff c3             	inc    rbx
  400a34:	cc                   	int3   
  400a35:	87 f7                	xchg   edi,esi
  400a37:	51                   	push   rcx
  400a38:	48 c7 c0 6f 00 00 00 	mov    rax,0x6f
  400a3f:	0f 05                	syscall 
  400a41:	59                   	pop    rcx
  400a42:	cc                   	int3   
  400a43:	48 c7 c0 27 00 00 00 	mov    rax,0x27
  400a4a:	0f 05                	syscall 
  400a4c:	59                   	pop    rcx
  400a4d:	48 f7 db             	neg    rbx
  400a50:	48 ff c6             	inc    rsi
  400a53:	48 f7 de             	neg    rsi
  400a56:	48 87 f6             	xchg   rsi,rsi
  400a59:	c6 04 25 d9 71 62 00 	mov    BYTE PTR ds:0x6271d9,0x65
  400a60:	65 
  400a61:	90                   	nop
  400a62:	48 21 f7             	and    rdi,rsi
  400a65:	48 01 c6             	add    rsi,rax
  400a68:	48 89 de             	mov    rsi,rbx
  400a6b:	51                   	push   rcx
  400a6c:	48 c7 c0 6f 00 00 00 	mov    rax,0x6f
  400a73:	cc                   	int3   
  400a74:	05 59 fd 51 48       	add    eax,0x4851fd59
  400a79:	c7 c0 6f 00 00 00    	mov    eax,0x6f
  400a7f:	0f 05                	syscall 
  400a81:	59                   	pop    rcx
  400a82:	48 31 c2             	xor    rdx,rax
  400a85:	fc                   	cld    
  400a86:	48 f7 eb             	imul   rbx
  400a89:	48 f7 e0             	mul    rax
  400a8c:	48 f7 e0             	mul    rax
  400a8f:	48 f7 db             	neg    rbx
  400a92:	48 ff c7             	inc    rdi
  400a95:	48 ff c0             	inc    rax
  400a98:	48 09 da             	or     rdx,rbx
  400a9b:	fc                   	cld    
  400a9c:	fc                   	cld    
  400a9d:	48 ff c8             	dec    rax
  400aa0:	48 f7 e3             	mul    rbx
  400aa3:	48 21 d2             	and    rdx,rdx
  400aa6:	90                   	nop
  400aa7:	90                   	nop
  400aa8:	51                   	push   rcx
  400aa9:	48 c7 c0 27 00 00 00 	mov    rax,0x27
  400ab0:	0f 05                	syscall 
  400ab2:	59                   	pop    rcx
  400ab3:	fd                   	std    
  400ab4:	48 ff ce             	dec    rsi
  400ab7:	48 01 db             	add    rbx,rbx
  400aba:	f8                   	clc    
  400abb:	48 f7 ee             	imul   rsi
  400abe:	f8                   	clc    
  400abf:	cc                   	int3   
  400ac0:	ff ce                	dec    esi
  400ac2:	cc                   	int3   
  400ac3:	48 f7 e3             	mul    rbx
  400ac6:	48 f7 da             	neg    rdx
  400ac9:	fd                   	std    
  400aca:	fc                   	cld    
  400acb:	f9                   	stc    
  400acc:	48 31 d7             	xor    rdi,rdx
  400acf:	48 ff cf             	dec    rdi
  400ad2:	48 21 f3             	and    rbx,rsi
  400ad5:	48 ff cf             	dec    rdi
  400ad8:	f8                   	clc    
  400ad9:	f9                   	stc    
  400ada:	f9                   	stc    
  400adb:	48 89 df             	mov    rdi,rbx
  400ade:	cc                   	int3   
  400adf:	48 f7 e0             	mul    rax
  400ae2:	cc                   	int3   
  400ae3:	48 85 f7             	test   rdi,rsi
  400ae6:	48 ff c8             	dec    rax
  400ae9:	48 ff c7             	inc    rdi
  400aec:	48 f7 e6             	mul    rsi
  400aef:	48 89 f3             	mov    rbx,rsi
  400af2:	48 ff ce             	dec    rsi
  400af5:	cc                   	int3   
  400af6:	48 89 d7             	mov    rdi,rdx
  400af9:	48 f7 d8             	neg    rax
  400afc:	48 01 d0             	add    rax,rdx
  400aff:	48 21 d6             	and    rsi,rdx
  400b02:	90                   	nop
  400b03:	fc                   	cld    
  400b04:	48 f7 ef             	imul   rdi
  400b07:	48 f7 e3             	mul    rbx
  400b0a:	fc                   	cld    
  400b0b:	f9                   	stc    
  400b0c:	48 f7 e6             	mul    rsi
  400b0f:	48 39 d6             	cmp    rsi,rdx
  400b12:	48 ff c3             	inc    rbx
  400b15:	f9                   	stc    
  400b16:	f8                   	clc    
  400b17:	48 f7 de             	neg    rsi
  400b1a:	48 89 c6             	mov    rsi,rax
  400b1d:	48 f7 e6             	mul    rsi
  400b20:	cc                   	int3   
  400b21:	39 c7                	cmp    edi,eax
  400b23:	f8                   	clc    
  400b24:	48 ff c0             	inc    rax
  400b27:	48 29 c6             	sub    rsi,rax
  400b2a:	48 f7 ef             	imul   rdi
  400b2d:	48 21 d7             	and    rdi,rdx
  400b30:	48 ff cb             	dec    rbx
  400b33:	fd                   	std    
  400b34:	48 29 d8             	sub    rax,rbx
  400b37:	fc                   	cld    
  400b38:	48 39 d8             	cmp    rax,rbx
  400b3b:	48 21 c3             	and    rbx,rax
  400b3e:	51                   	push   rcx
  400b3f:	48 c7 c0 27 00 00 00 	mov    rax,0x27
  400b46:	0f 05                	syscall 
  400b48:	59                   	pop    rcx
  400b49:	51                   	push   rcx
  400b4a:	48 c7 c0 6c 00 00 00 	mov    rax,0x6c
  400b51:	0f 05                	syscall 
  400b53:	59                   	pop    rcx
  400b54:	48 f7 ea             	imul   rdx
  400b57:	51                   	push   rcx
  400b58:	48 c7 c0 68 00 00 00 	mov    rax,0x68
  400b5f:	0f 05                	syscall 
  400b61:	59                   	pop    rcx
  400b62:	48 85 c6             	test   rsi,rax
  400b65:	fd                   	std    
  400b66:	48 ff c6             	inc    rsi
  400b69:	90                   	nop
  400b6a:	48 f7 eb             	imul   rbx
  400b6d:	48 f7 e6             	mul    rsi
  400b70:	48 f7 db             	neg    rbx
  400b73:	f9                   	stc    
  400b74:	48 f7 de             	neg    rsi
  400b77:	fc                   	cld    
  400b78:	48 f7 ea             	imul   rdx
  400b7b:	48 39 f0             	cmp    rax,rsi
  400b7e:	48 29 fb             	sub    rbx,rdi
  400b81:	fc                   	cld    
  400b82:	f8                   	clc    
  400b83:	48 09 d0             	or     rax,rdx
  400b86:	cc                   	int3   
  400b87:	48 f7 e3             	mul    rbx
  400b8a:	48 ff c8             	dec    rax
  400b8d:	fd                   	std    
  400b8e:	48 09 fb             	or     rbx,rdi
  400b91:	f8                   	clc    
  400b92:	48 f7 ef             	imul   rdi
  400b95:	48 ff c0             	inc    rax
  400b98:	fd                   	std    
  400b99:	48 ff cf             	dec    rdi
  400b9c:	48 01 d2             	add    rdx,rdx
  400b9f:	cc                   	int3   
  400ba0:	48 f7 eb             	imul   rbx
  400ba3:	c6 04 25 97 71 62 00 	mov    BYTE PTR ds:0x627197,0xf4
  400baa:	f4 
  400bab:	48 f7 da             	neg    rdx
  400bae:	48 85 f6             	test   rsi,rsi
  400bb1:	fc                   	cld    
  400bb2:	48 85 d3             	test   rbx,rdx
  400bb5:	fd                   	std    
  400bb6:	48 ff c0             	inc    rax
  400bb9:	f9                   	stc    
  400bba:	48 ff cf             	dec    rdi
  400bbd:	90                   	nop
  400bbe:	fd                   	std    
  400bbf:	51                   	push   rcx
  400bc0:	48 c7 c0 6e 00 00 00 	mov    rax,0x6e
  400bc7:	0f 05                	syscall 
  400bc9:	59                   	pop    rcx
  400bca:	48 21 da             	and    rdx,rbx
  400bcd:	48 ff ca             	dec    rdx
  400bd0:	fd                   	std    
  400bd1:	fc                   	cld    
  400bd2:	51                   	push   rcx
  400bd3:	48 c7 c0 27 00 00 00 	mov    rax,0x27
  400bda:	0f 05                	syscall 
  400bdc:	59                   	pop    rcx
  400bdd:	48 ff c3             	inc    rbx
  400be0:	48 ff c6             	inc    rsi
  400be3:	48 ff c0             	inc    rax
  400be6:	fc                   	cld    
  400be7:	48 39 f8             	cmp    rax,rdi
  400bea:	cc                   	int3   
  400beb:	f7 d8                	neg    eax
  400bed:	48 f7 e6             	mul    rsi
  400bf0:	cc                   	int3   
  400bf1:	51                   	push   rcx
  400bf2:	48 c7 c0 66 00 00 00 	mov    rax,0x66
  400bf9:	0f 05                	syscall 
  400bfb:	59                   	pop    rcx
  400bfc:	48 89 d8             	mov    rax,rbx
  400bff:	48 f7 ee             	imul   rsi
  400c02:	c6 04 25 a9 71 62 00 	mov    BYTE PTR ds:0x6271a9,0x8e
  400c09:	8e 
  400c0a:	fc                   	cld    
  400c0b:	90                   	nop
  400c0c:	48 f7 da             	neg    rdx
  400c0f:	cc                   	int3   
  400c10:	ff c3                	inc    ebx
  400c12:	c6 04 25 98 71 62 00 	mov    BYTE PTR ds:0x627198,0xaa
  400c19:	aa 
  400c1a:	fc                   	cld    
  400c1b:	48 89 d6             	mov    rsi,rdx
  400c1e:	cc                   	int3   
  400c1f:	48 01 d0             	add    rax,rdx
  400c22:	51                   	push   rcx
  400c23:	48 c7 c0 27 00 00 00 	mov    rax,0x27
  400c2a:	0f 05                	syscall 
  400c2c:	59                   	pop    rcx
  400c2d:	48 f7 da             	neg    rdx
  400c30:	fc                   	cld    
  400c31:	48 ff c2             	inc    rdx
  400c34:	48 09 ff             	or     rdi,rdi
  400c37:	48 21 fe             	and    rsi,rdi
  400c3a:	48 f7 eb             	imul   rbx
  400c3d:	48 f7 e3             	mul    rbx
  400c40:	f9                   	stc    
  400c41:	90                   	nop
  400c42:	48 f7 db             	neg    rbx
  400c45:	48 f7 e0             	mul    rax
  400c48:	cc                   	int3   
  400c49:	29 df                	sub    edi,ebx
  400c4b:	48 89 d0             	mov    rax,rdx
  400c4e:	48 01 d7             	add    rdi,rdx
  400c51:	48 f7 e0             	mul    rax
  400c54:	48 89 d7             	mov    rdi,rdx
  400c57:	48 93                	xchg   rbx,rax
  400c59:	48 89 f6             	mov    rsi,rsi
  400c5c:	f9                   	stc    
  400c5d:	48 ff c8             	dec    rax
  400c60:	f8                   	clc    
  400c61:	f8                   	clc    
  400c62:	cc                   	int3   
  400c63:	01 f6                	add    esi,esi
  400c65:	51                   	push   rcx
  400c66:	48 c7 c0 6e 00 00 00 	mov    rax,0x6e
  400c6d:	0f 05                	syscall 
  400c6f:	59                   	pop    rcx
  400c70:	90                   	nop
  400c71:	cc                   	int3   
  400c72:	cc                   	int3   
  400c73:	04 25                	add    al,0x25
  400c75:	da 71 62             	fidiv  DWORD PTR [rcx+0x62]
  400c78:	00 5f c6             	add    BYTE PTR [rdi-0x3a],bl
  400c7b:	04 25                	add    al,0x25
  400c7d:	db 71 62             	(bad)  [rcx+0x62]
  400c80:	00 66 48             	add    BYTE PTR [rsi+0x48],ah
  400c83:	f7 e7                	mul    edi
  400c85:	f8                   	clc    
  400c86:	cc                   	int3   
  400c87:	f7 e0                	mul    eax
  400c89:	fd                   	std    
  400c8a:	cc                   	int3   
  400c8b:	fc                   	cld    
  400c8c:	fc                   	cld    
  400c8d:	48 09 c7             	or     rdi,rax
  400c90:	cc                   	int3   
  400c91:	87 fb                	xchg   ebx,edi
  400c93:	48 f7 ee             	imul   rsi
  400c96:	48 01 d3             	add    rbx,rdx
  400c99:	fc                   	cld    
  400c9a:	48 87 d7             	xchg   rdi,rdx
  400c9d:	48 f7 de             	neg    rsi
  400ca0:	f8                   	clc    
  400ca1:	f8                   	clc    
  400ca2:	48 ff c0             	inc    rax
  400ca5:	fc                   	cld    
  400ca6:	f9                   	stc    
  400ca7:	48 85 f6             	test   rsi,rsi
  400caa:	48 f7 d8             	neg    rax
  400cad:	48 89 f2             	mov    rdx,rsi
  400cb0:	48 f7 e7             	mul    rdi
  400cb3:	48 f7 ef             	imul   rdi
  400cb6:	48 21 ff             	and    rdi,rdi
  400cb9:	48 f7 d8             	neg    rax
  400cbc:	90                   	nop
  400cbd:	48 29 f2             	sub    rdx,rsi
  400cc0:	f8                   	clc    
  400cc1:	48 f7 ea             	imul   rdx
  400cc4:	48 01 d6             	add    rsi,rdx
  400cc7:	48 ff c7             	inc    rdi
  400cca:	48 ff cf             	dec    rdi
  400ccd:	90                   	nop
  400cce:	48 21 d7             	and    rdi,rdx
  400cd1:	48 ff c0             	inc    rax
  400cd4:	48 89 c7             	mov    rdi,rax
  400cd7:	48 31 d6             	xor    rsi,rdx
  400cda:	cc                   	int3   
  400cdb:	fd                   	std    
  400cdc:	48 f7 e2             	mul    rdx
  400cdf:	48 09 d6             	or     rsi,rdx
  400ce2:	48 21 fa             	and    rdx,rdi
  400ce5:	48 f7 d8             	neg    rax
  400ce8:	51                   	push   rcx
  400ce9:	48 c7 c0 6e 00 00 00 	mov    rax,0x6e
  400cf0:	0f 05                	syscall 
  400cf2:	59                   	pop    rcx
  400cf3:	48 09 ff             	or     rdi,rdi
  400cf6:	fd                   	std    
  400cf7:	48 89 c3             	mov    rbx,rax
  400cfa:	48 09 d2             	or     rdx,rdx
  400cfd:	cc                   	int3   
  400cfe:	01 da                	add    edx,ebx
  400d00:	48 01 d3             	add    rbx,rdx
  400d03:	90                   	nop
  400d04:	48 f7 ef             	imul   rdi
  400d07:	cc                   	int3   
  400d08:	90                   	nop
  400d09:	fc                   	cld    
  400d0a:	cc                   	int3   
  400d0b:	48 87 fa             	xchg   rdx,rdi
  400d0e:	48 87 d3             	xchg   rbx,rdx
  400d11:	c6 04 25 dc 71 62 00 	mov    BYTE PTR ds:0x6271dc,0x30
  400d18:	30 
  400d19:	48 ff c0             	inc    rax
  400d1c:	fd                   	std    
  400d1d:	fc                   	cld    
  400d1e:	48 21 fa             	and    rdx,rdi
  400d21:	90                   	nop
  400d22:	fd                   	std    
  400d23:	51                   	push   rcx
  400d24:	48 c7 c0 27 00 00 00 	mov    rax,0x27
  400d2b:	0f 05                	syscall 
  400d2d:	59                   	pop    rcx
  400d2e:	48 ff c6             	inc    rsi
  400d31:	fc                   	cld    
  400d32:	48 ff cf             	dec    rdi
  400d35:	51                   	push   rcx
  400d36:	48 c7 c0 68 00 00 00 	mov    rax,0x68
  400d3d:	0f 05                	syscall 
  400d3f:	59                   	pop    rcx
  400d40:	48 39 fe             	cmp    rsi,rdi
  400d43:	cc                   	int3   
  400d44:	90                   	nop
  400d45:	c6 04 25 cc 71 62 00 	mov    BYTE PTR ds:0x6271cc,0x8
  400d4c:	08 
  400d4d:	c6 04 25 c0 71 62 00 	mov    BYTE PTR ds:0x6271c0,0xab
  400d54:	ab 
  400d55:	f8                   	clc    
  400d56:	cc                   	int3   
  400d57:	f7 e8                	imul   eax
  400d59:	48 31 d6             	xor    rsi,rdx
  400d5c:	fc                   	cld    
  400d5d:	48 ff c6             	inc    rsi
  400d60:	cc                   	int3   
  400d61:	48 29 ff             	sub    rdi,rdi
  400d64:	cc                   	int3   
  400d65:	01 fb                	add    ebx,edi
  400d67:	48 09 f0             	or     rax,rsi
  400d6a:	48 21 d3             	and    rbx,rdx
  400d6d:	48 09 d2             	or     rdx,rdx
  400d70:	fc                   	cld    
  400d71:	90                   	nop
  400d72:	cc                   	int3   
  400d73:	f7 ea                	imul   edx
  400d75:	48 39 f8             	cmp    rax,rdi
  400d78:	51                   	push   rcx
  400d79:	48 c7 c0 6e 00 00 00 	mov    rax,0x6e
  400d80:	0f 05                	syscall 
  400d82:	59                   	pop    rcx
  400d83:	48 39 f8             	cmp    rax,rdi
  400d86:	f9                   	stc    
  400d87:	f8                   	clc    
  400d88:	90                   	nop
  400d89:	48 01 f8             	add    rax,rdi
  400d8c:	cc                   	int3   
  400d8d:	09 c3                	or     ebx,eax
  400d8f:	48 39 c2             	cmp    rdx,rax
  400d92:	48 29 d8             	sub    rax,rbx
  400d95:	48 29 d3             	sub    rbx,rdx
  400d98:	48 89 d8             	mov    rax,rbx
  400d9b:	cc                   	int3   
  400d9c:	ff c0                	inc    eax
  400d9e:	48 f7 e0             	mul    rax
  400da1:	90                   	nop
  400da2:	48 ff c8             	dec    rax
  400da5:	90                   	nop
  400da6:	48 39 d7             	cmp    rdi,rdx
  400da9:	48 29 c6             	sub    rsi,rax
  400dac:	48 f7 e6             	mul    rsi
  400daf:	f9                   	stc    
  400db0:	48 f7 e6             	mul    rsi
  400db3:	51                   	push   rcx
  400db4:	48 c7 c0 18 00 00 00 	mov    rax,0x18
  400dbb:	0f 05                	syscall 
  400dbd:	59                   	pop    rcx
  400dbe:	48 87 d6             	xchg   rsi,rdx
  400dc1:	48 f7 e6             	mul    rsi
  400dc4:	48 29 da             	sub    rdx,rbx
  400dc7:	48 21 c0             	and    rax,rax
  400dca:	90                   	nop
  400dcb:	48 ff c2             	inc    rdx
  400dce:	f8                   	clc    
  400dcf:	48 01 c2             	add    rdx,rax
  400dd2:	cc                   	int3   
  400dd3:	f7 db                	neg    ebx
  400dd5:	48 87 d7             	xchg   rdi,rdx
  400dd8:	fd                   	std    
  400dd9:	90                   	nop
  400dda:	cc                   	int3   
  400ddb:	48 ff ca             	dec    rdx
  400dde:	48 01 f3             	add    rbx,rsi
  400de1:	48 89 c2             	mov    rdx,rax
  400de4:	48 09 fe             	or     rsi,rdi
  400de7:	48 09 df             	or     rdi,rbx
  400dea:	cc                   	int3   
  400deb:	31 c2                	xor    edx,eax
  400ded:	c6 04 25 dd 71 62 00 	mov    BYTE PTR ds:0x6271dd,0x75
  400df4:	75 
  400df5:	48 85 fe             	test   rsi,rdi
  400df8:	48 21 f8             	and    rax,rdi
  400dfb:	fd                   	std    
  400dfc:	fd                   	std    
  400dfd:	cc                   	int3   
  400dfe:	48 f7 e2             	mul    rdx
  400e01:	51                   	push   rcx
  400e02:	cc                   	int3   
  400e03:	c7 c0 18 00 00 00    	mov    eax,0x18
  400e09:	0f 05                	syscall 
  400e0b:	59                   	pop    rcx
  400e0c:	48 87 f3             	xchg   rbx,rsi
  400e0f:	48 29 df             	sub    rdi,rbx
  400e12:	48 ff c6             	inc    rsi
  400e15:	fd                   	std    
  400e16:	48 ff c8             	dec    rax
  400e19:	90                   	nop
  400e1a:	f8                   	clc    
  400e1b:	48 f7 db             	neg    rbx
  400e1e:	cc                   	int3   
  400e1f:	48 f7 e7             	mul    rdi
  400e22:	fc                   	cld    
  400e23:	cc                   	int3   
  400e24:	48 ff c0             	inc    rax
  400e27:	c6 04 25 a1 71 62 00 	mov    BYTE PTR ds:0x6271a1,0xf1
  400e2e:	f1 
  400e2f:	48 85 d6             	test   rsi,rdx
  400e32:	fd                   	std    
  400e33:	48 ff cb             	dec    rbx
  400e36:	48 f7 e7             	mul    rdi
  400e39:	48 ff c6             	inc    rsi
  400e3c:	48 21 f8             	and    rax,rdi
  400e3f:	48 ff cb             	dec    rbx
  400e42:	48 21 d0             	and    rax,rdx
  400e45:	48 f7 e3             	mul    rbx
  400e48:	48 ff c6             	inc    rsi
  400e4b:	48 29 d2             	sub    rdx,rdx
  400e4e:	48 ff c7             	inc    rdi
  400e51:	f9                   	stc    
  400e52:	fc                   	cld    
  400e53:	48 39 c0             	cmp    rax,rax
  400e56:	48 85 c0             	test   rax,rax
  400e59:	48 21 d7             	and    rdi,rdx
  400e5c:	48 39 c2             	cmp    rdx,rax
  400e5f:	fd                   	std    
  400e60:	cc                   	int3   
  400e61:	51                   	push   rcx
  400e62:	cc                   	int3   
  400e63:	c7 c0 6f 00 00 00    	mov    eax,0x6f
  400e69:	cc                   	int3   
  400e6a:	05 59 51 48 c7       	add    eax,0xc7485159
  400e6f:	c0 6c 00 00 00       	shr    BYTE PTR [rax+rax*1+0x0],0x0
  400e74:	0f 05                	syscall 
  400e76:	59                   	pop    rcx
  400e77:	c6 04 25 a1 71 62 00 	mov    BYTE PTR ds:0x6271a1,0x6c
  400e7e:	6c 
  400e7f:	48 f7 eb             	imul   rbx
  400e82:	48 09 d0             	or     rax,rdx
  400e85:	48 f7 e2             	mul    rdx
  400e88:	c6 04 25 95 71 62 00 	mov    BYTE PTR ds:0x627195,0x9c
  400e8f:	9c 
  400e90:	fc                   	cld    
  400e91:	cc                   	int3   
  400e92:	29 fb                	sub    ebx,edi
  400e94:	48 f7 eb             	imul   rbx
  400e97:	f8                   	clc    
  400e98:	f8                   	clc    
  400e99:	f9                   	stc    
  400e9a:	48 29 db             	sub    rbx,rbx
  400e9d:	48 ff c7             	inc    rdi
  400ea0:	48 21 f2             	and    rdx,rsi
  400ea3:	48 f7 ea             	imul   rdx
  400ea6:	48 85 fa             	test   rdx,rdi
  400ea9:	48 f7 eb             	imul   rbx
  400eac:	fd                   	std    
  400ead:	f8                   	clc    
  400eae:	fd                   	std    
  400eaf:	fc                   	cld    
  400eb0:	48 39 db             	cmp    rbx,rbx
  400eb3:	48 85 ff             	test   rdi,rdi
  400eb6:	f9                   	stc    
  400eb7:	fc                   	cld    
  400eb8:	f9                   	stc    
  400eb9:	48 ff c2             	inc    rdx
  400ebc:	48 f7 d8             	neg    rax
  400ebf:	f9                   	stc    
  400ec0:	fc                   	cld    
  400ec1:	48 ff cf             	dec    rdi
  400ec4:	f8                   	clc    
  400ec5:	48 f7 ee             	imul   rsi
  400ec8:	48 ff c3             	inc    rbx
  400ecb:	fc                   	cld    
  400ecc:	f9                   	stc    
  400ecd:	48 f7 ef             	imul   rdi
  400ed0:	90                   	nop
  400ed1:	fc                   	cld    
  400ed2:	48 39 c6             	cmp    rsi,rax
  400ed5:	48 85 c7             	test   rdi,rax
  400ed8:	48 21 d6             	and    rsi,rdx
  400edb:	cc                   	int3   
  400edc:	f7 e8                	imul   eax
  400ede:	48 29 ff             	sub    rdi,rdi
  400ee1:	48 87 d7             	xchg   rdi,rdx
  400ee4:	48 09 d2             	or     rdx,rdx
  400ee7:	fd                   	std    
  400ee8:	48 ff c3             	inc    rbx
  400eeb:	f8                   	clc    
  400eec:	51                   	push   rcx
  400eed:	48 c7 c0 6e 00 00 00 	mov    rax,0x6e
  400ef4:	cc                   	int3   
  400ef5:	05 59 cc ff c0       	add    eax,0xc0ffcc59
  400efa:	48 ff c8             	dec    rax
  400efd:	c6 04 25 c5 71 62 00 	mov    BYTE PTR ds:0x6271c5,0x8f
  400f04:	8f 
  400f05:	48 f7 e8             	imul   rax
  400f08:	f9                   	stc    
  400f09:	48 f7 de             	neg    rsi
  400f0c:	f8                   	clc    
  400f0d:	48 f7 df             	neg    rdi
  400f10:	48 f7 de             	neg    rsi
  400f13:	fd                   	std    
  400f14:	fd                   	std    
  400f15:	48 ff cb             	dec    rbx
  400f18:	fc                   	cld    
  400f19:	f9                   	stc    
  400f1a:	48 ff c2             	inc    rdx
  400f1d:	48 ff ce             	dec    rsi
  400f20:	48 f7 d8             	neg    rax
  400f23:	48 ff cb             	dec    rbx
  400f26:	48 87 d7             	xchg   rdi,rdx
  400f29:	48 ff ca             	dec    rdx
  400f2c:	51                   	push   rcx
  400f2d:	48 c7 c0 6c 00 00 00 	mov    rax,0x6c
  400f34:	0f 05                	syscall 
  400f36:	cc                   	int3   
  400f37:	f9                   	stc    
  400f38:	48 39 df             	cmp    rdi,rbx
  400f3b:	cc                   	int3   
  400f3c:	f7 de                	neg    esi
  400f3e:	f9                   	stc    
  400f3f:	48 ff ce             	dec    rsi
  400f42:	48 39 f0             	cmp    rax,rsi
  400f45:	51                   	push   rcx
  400f46:	48 c7 c0 68 00 00 00 	mov    rax,0x68
  400f4d:	0f 05                	syscall 
  400f4f:	59                   	pop    rcx
  400f50:	48 f7 e3             	mul    rbx
  400f53:	48 29 d0             	sub    rax,rdx
  400f56:	f9                   	stc    
  400f57:	48 f7 ea             	imul   rdx
  400f5a:	90                   	nop
  400f5b:	f9                   	stc    
  400f5c:	51                   	push   rcx
  400f5d:	48 c7 c0 6c 00 00 00 	mov    rax,0x6c
  400f64:	0f 05                	syscall 
  400f66:	59                   	pop    rcx
  400f67:	f8                   	clc    
  400f68:	51                   	push   rcx
  400f69:	48 c7 c0 6c 00 00 00 	mov    rax,0x6c
  400f70:	0f 05                	syscall 
  400f72:	59                   	pop    rcx
  400f73:	cc                   	int3   
  400f74:	48 21 de             	and    rsi,rbx
  400f77:	cc                   	int3   
  400f78:	48 c7 c0 6e 00 00 00 	mov    rax,0x6e
  400f7f:	0f 05                	syscall 
  400f81:	59                   	pop    rcx
  400f82:	fc                   	cld    
  400f83:	48 ff c8             	dec    rax
  400f86:	fd                   	std    
  400f87:	48 87 d7             	xchg   rdi,rdx
  400f8a:	48 f7 ee             	imul   rsi
  400f8d:	48 f7 df             	neg    rdi
  400f90:	f9                   	stc    
  400f91:	48 09 f7             	or     rdi,rsi
  400f94:	48 f7 ea             	imul   rdx
  400f97:	48 29 c7             	sub    rdi,rax
  400f9a:	cc                   	int3   
  400f9b:	01 df                	add    edi,ebx
  400f9d:	fd                   	std    
  400f9e:	48 ff c8             	dec    rax
  400fa1:	fd                   	std    
  400fa2:	48 f7 df             	neg    rdi
  400fa5:	cc                   	int3   
  400fa6:	ff c3                	inc    ebx
  400fa8:	48 21 c3             	and    rbx,rax
  400fab:	f9                   	stc    
  400fac:	48 f7 e8             	imul   rax
  400faf:	48 f7 e3             	mul    rbx
  400fb2:	cc                   	int3   
  400fb3:	f8                   	clc    
  400fb4:	cc                   	int3   
  400fb5:	ff cb                	dec    ebx
  400fb7:	48 ff cf             	dec    rdi
  400fba:	48 f7 e0             	mul    rax
  400fbd:	48 85 da             	test   rdx,rbx
  400fc0:	48 ff c8             	dec    rax
  400fc3:	48 29 c0             	sub    rax,rax
  400fc6:	90                   	nop
  400fc7:	cc                   	int3   
  400fc8:	51                   	push   rcx
  400fc9:	48 c7 c0 6b 00 00 00 	mov    rax,0x6b
  400fd0:	0f 05                	syscall 
  400fd2:	59                   	pop    rcx
  400fd3:	f9                   	stc    
  400fd4:	48 09 db             	or     rbx,rbx
  400fd7:	48 ff c8             	dec    rax
  400fda:	51                   	push   rcx
  400fdb:	48 c7 c0 6c 00 00 00 	mov    rax,0x6c
  400fe2:	0f 05                	syscall 
  400fe4:	59                   	pop    rcx
  400fe5:	48 87 f2             	xchg   rdx,rsi
  400fe8:	51                   	push   rcx
  400fe9:	48 c7 c0 27 00 00 00 	mov    rax,0x27
  400ff0:	0f 05                	syscall 
  400ff2:	59                   	pop    rcx
  400ff3:	48 96                	xchg   rsi,rax
  400ff5:	48 ff c3             	inc    rbx
  400ff8:	fc                   	cld    
  400ff9:	48 f7 ef             	imul   rdi
  400ffc:	fc                   	cld    
  400ffd:	cc                   	int3   
  400ffe:	85 c2                	test   edx,eax
  401000:	f8                   	clc    
  401001:	48 f7 d8             	neg    rax
  401004:	48 f7 db             	neg    rbx
  401007:	48 29 f3             	sub    rbx,rsi
  40100a:	51                   	push   rcx
  40100b:	48 c7 c0 18 00 00 00 	mov    rax,0x18
  401012:	0f 05                	syscall 
  401014:	cc                   	int3   
  401015:	fc                   	cld    
  401016:	c6 04 25 b6 71 62 00 	mov    BYTE PTR ds:0x6271b6,0xdc
  40101d:	dc 
  40101e:	48 f7 db             	neg    rbx
  401021:	48 29 df             	sub    rdi,rbx
  401024:	48 f7 ee             	imul   rsi
  401027:	48 ff ca             	dec    rdx
  40102a:	f9                   	stc    
  40102b:	48 f7 eb             	imul   rbx
  40102e:	48 85 f6             	test   rsi,rsi
  401031:	48 89 d2             	mov    rdx,rdx
  401034:	48 f7 db             	neg    rbx
  401037:	cc                   	int3   
  401038:	04 25                	add    al,0x25
  40103a:	c4                   	(bad)  
  40103b:	71 62                	jno    40109f <_start+0xfef>
  40103d:	00 f0                	add    al,dh
  40103f:	48 39 c0             	cmp    rax,rax
  401042:	48 39 c7             	cmp    rdi,rax
  401045:	48 39 ff             	cmp    rdi,rdi
  401048:	51                   	push   rcx
  401049:	48 c7 c0 27 00 00 00 	mov    rax,0x27
  401050:	0f 05                	syscall 
  401052:	59                   	pop    rcx
  401053:	c6 04 25 b9 71 62 00 	mov    BYTE PTR ds:0x6271b9,0x67
  40105a:	67 
  40105b:	c6 04 25 de 71 62 00 	mov    BYTE PTR ds:0x6271de,0x6e
  401062:	6e 
  401063:	48 85 c2             	test   rdx,rax
  401066:	51                   	push   rcx
  401067:	48 c7 c0 6f 00 00 00 	mov    rax,0x6f
  40106e:	0f 05                	syscall 
  401070:	59                   	pop    rcx
  401071:	48 ff c6             	inc    rsi
  401074:	cc                   	int3   
  401075:	ff c2                	inc    edx
  401077:	48 09 fa             	or     rdx,rdi
  40107a:	c6 04 25 9b 71 62 00 	mov    BYTE PTR ds:0x62719b,0xbf
  401081:	bf 
  401082:	48 f7 ef             	imul   rdi
  401085:	cc                   	int3   
  401086:	f7 ea                	imul   edx
  401088:	cc                   	int3   
  401089:	48 21 d7             	and    rdi,rdx
  40108c:	48 f7 de             	neg    rsi
  40108f:	fc                   	cld    
  401090:	48 31 d8             	xor    rax,rbx
  401093:	fd                   	std    
  401094:	cc                   	int3   
  401095:	01 db                	add    ebx,ebx
  401097:	48 f7 e6             	mul    rsi
  40109a:	48 f7 eb             	imul   rbx
  40109d:	48 09 c7             	or     rdi,rax
  4010a0:	48 85 c6             	test   rsi,rax
  4010a3:	51                   	push   rcx
  4010a4:	cc                   	int3   
  4010a5:	c7 c0 6b 00 00 00    	mov    eax,0x6b
  4010ab:	cc                   	int3   
  4010ac:	05 cc 48 f7 da       	add    eax,0xdaf748cc
  4010b1:	48 f7 e8             	imul   rax
  4010b4:	fd                   	std    
  4010b5:	cc                   	int3   
  4010b6:	cc                   	int3   
  4010b7:	f7 e2                	mul    edx
  4010b9:	48 85 f8             	test   rax,rdi
  4010bc:	f9                   	stc    
  4010bd:	48 39 f2             	cmp    rdx,rsi
  4010c0:	48 85 f0             	test   rax,rsi
  4010c3:	90                   	nop
  4010c4:	48 ff c3             	inc    rbx
  4010c7:	cc                   	int3   
  4010c8:	31 ff                	xor    edi,edi
  4010ca:	51                   	push   rcx
  4010cb:	48 c7 c0 27 00 00 00 	mov    rax,0x27
  4010d2:	0f 05                	syscall 
  4010d4:	59                   	pop    rcx
  4010d5:	48 f7 ee             	imul   rsi
  4010d8:	48 f7 da             	neg    rdx
  4010db:	48 21 c6             	and    rsi,rax
  4010de:	f9                   	stc    
  4010df:	51                   	push   rcx
  4010e0:	48 c7 c0 6c 00 00 00 	mov    rax,0x6c
  4010e7:	cc                   	int3   
  4010e8:	05 59 f8 f9 48       	add    eax,0x48f9f859
  4010ed:	89 fa                	mov    edx,edi
  4010ef:	48 ff c8             	dec    rax
  4010f2:	48 f7 de             	neg    rsi
  4010f5:	48 01 de             	add    rsi,rbx
  4010f8:	48 09 d3             	or     rbx,rdx
  4010fb:	48 89 f3             	mov    rbx,rsi
  4010fe:	48 f7 e8             	imul   rax
  401101:	48 ff c7             	inc    rdi
  401104:	cc                   	int3   
  401105:	ff c3                	inc    ebx
  401107:	90                   	nop
  401108:	48 39 d8             	cmp    rax,rbx
  40110b:	48 89 f0             	mov    rax,rsi
  40110e:	48 85 d0             	test   rax,rdx
  401111:	48 f7 e7             	mul    rdi
  401114:	48 ff cb             	dec    rbx
  401117:	48 f7 df             	neg    rdi
  40111a:	48 29 f6             	sub    rsi,rsi
  40111d:	cc                   	int3   
  40111e:	01 c2                	add    edx,eax
  401120:	48 89 d6             	mov    rsi,rdx
  401123:	48 ff c0             	inc    rax
  401126:	48 39 da             	cmp    rdx,rbx
  401129:	fc                   	cld    
  40112a:	fd                   	std    
  40112b:	fc                   	cld    
  40112c:	48 09 d7             	or     rdi,rdx
  40112f:	48 f7 eb             	imul   rbx
  401132:	51                   	push   rcx
  401133:	48 c7 c0 6f 00 00 00 	mov    rax,0x6f
  40113a:	0f 05                	syscall 
  40113c:	59                   	pop    rcx
  40113d:	cc                   	int3   
  40113e:	f9                   	stc    
  40113f:	48 31 f6             	xor    rsi,rsi
  401142:	48 ff c7             	inc    rdi
  401145:	cc                   	int3   
  401146:	31 fb                	xor    ebx,edi
  401148:	48 f7 db             	neg    rbx
  40114b:	48 97                	xchg   rdi,rax
  40114d:	48 85 f6             	test   rsi,rsi
  401150:	f8                   	clc    
  401151:	48 f7 ea             	imul   rdx
  401154:	48 31 ff             	xor    rdi,rdi
  401157:	48 31 fb             	xor    rbx,rdi
  40115a:	48 09 fb             	or     rbx,rdi
  40115d:	48 ff c0             	inc    rax
  401160:	48 f7 da             	neg    rdx
  401163:	48 31 c6             	xor    rsi,rax
  401166:	f9                   	stc    
  401167:	48 87 fb             	xchg   rbx,rdi
  40116a:	48 f7 e3             	mul    rbx
  40116d:	cc                   	int3   
  40116e:	48 ff ca             	dec    rdx
  401171:	90                   	nop
  401172:	90                   	nop
  401173:	f9                   	stc    
  401174:	fd                   	std    
  401175:	48 85 f7             	test   rdi,rsi
  401178:	48 29 c7             	sub    rdi,rax
  40117b:	48 f7 e0             	mul    rax
  40117e:	cc                   	int3   
  40117f:	48 01 d8             	add    rax,rbx
  401182:	f8                   	clc    
  401183:	48 ff ca             	dec    rdx
  401186:	48 85 d6             	test   rsi,rdx
  401189:	48 f7 e8             	imul   rax
  40118c:	90                   	nop
  40118d:	fc                   	cld    
  40118e:	90                   	nop
  40118f:	48 09 d7             	or     rdi,rdx
  401192:	51                   	push   rcx
  401193:	48 c7 c0 6c 00 00 00 	mov    rax,0x6c
  40119a:	0f 05                	syscall 
  40119c:	59                   	pop    rcx
  40119d:	f8                   	clc    
  40119e:	48 ff c8             	dec    rax
  4011a1:	90                   	nop
  4011a2:	48 21 fe             	and    rsi,rdi
  4011a5:	48 39 f2             	cmp    rdx,rsi
  4011a8:	48 f7 e6             	mul    rsi
  4011ab:	fc                   	cld    
  4011ac:	48 29 df             	sub    rdi,rbx
  4011af:	f8                   	clc    
  4011b0:	90                   	nop
  4011b1:	48 f7 db             	neg    rbx
  4011b4:	48 85 c6             	test   rsi,rax
  4011b7:	51                   	push   rcx
  4011b8:	48 c7 c0 6f 00 00 00 	mov    rax,0x6f
  4011bf:	0f 05                	syscall 
  4011c1:	59                   	pop    rcx
  4011c2:	fd                   	std    
  4011c3:	48 f7 e2             	mul    rdx
  4011c6:	cc                   	int3   
  4011c7:	ff c0                	inc    eax
  4011c9:	48 97                	xchg   rdi,rax
  4011cb:	cc                   	int3   
  4011cc:	f9                   	stc    
  4011cd:	48 21 f0             	and    rax,rsi
  4011d0:	fd                   	std    
  4011d1:	48 85 c6             	test   rsi,rax
  4011d4:	f9                   	stc    
  4011d5:	fc                   	cld    
  4011d6:	fc                   	cld    
  4011d7:	48 f7 db             	neg    rbx
  4011da:	48 87 fa             	xchg   rdx,rdi
  4011dd:	48 ff c0             	inc    rax
  4011e0:	f9                   	stc    
  4011e1:	cc                   	int3   
  4011e2:	89 f2                	mov    edx,esi
  4011e4:	f8                   	clc    
  4011e5:	48 85 f7             	test   rdi,rsi
  4011e8:	90                   	nop
  4011e9:	48 ff cf             	dec    rdi
  4011ec:	48 f7 ef             	imul   rdi
  4011ef:	48 87 f7             	xchg   rdi,rsi
  4011f2:	48 ff c6             	inc    rsi
  4011f5:	fc                   	cld    
  4011f6:	48 87 f7             	xchg   rdi,rsi
  4011f9:	90                   	nop
  4011fa:	fd                   	std    
  4011fb:	48 85 c7             	test   rdi,rax
  4011fe:	48 ff cb             	dec    rbx
  401201:	f8                   	clc    
  401202:	fd                   	std    
  401203:	f8                   	clc    
  401204:	48 ff ca             	dec    rdx
  401207:	48 01 c7             	add    rdi,rax
  40120a:	48 ff c8             	dec    rax
  40120d:	48 31 ff             	xor    rdi,rdi
  401210:	51                   	push   rcx
  401211:	48 c7 c0 6b 00 00 00 	mov    rax,0x6b
  401218:	0f 05                	syscall 
  40121a:	59                   	pop    rcx
  40121b:	cc                   	int3   
  40121c:	ff c7                	inc    edi
  40121e:	fc                   	cld    
  40121f:	48 f7 e6             	mul    rsi
  401222:	cc                   	int3   
  401223:	04 25                	add    al,0x25
  401225:	ca 71 62             	retf   0x6271
  401228:	00 ad 48 31 de cc    	add    BYTE PTR [rbp-0x3321ceb8],ch
  40122e:	21 c6                	and    esi,eax
  401230:	fc                   	cld    
  401231:	cc                   	int3   
  401232:	89 d0                	mov    eax,edx
  401234:	fd                   	std    
  401235:	c6 04 25 a2 71 62 00 	mov    BYTE PTR ds:0x6271a2,0xc6
  40123c:	c6 
  40123d:	48 f7 d8             	neg    rax
  401240:	f8                   	clc    
  401241:	48 ff cf             	dec    rdi
  401244:	cc                   	int3   
  401245:	48 c7 c0 6b 00 00 00 	mov    rax,0x6b
  40124c:	0f 05                	syscall 
  40124e:	59                   	pop    rcx
  40124f:	48 f7 d8             	neg    rax
  401252:	cc                   	int3   
  401253:	01 d3                	add    ebx,edx
  401255:	48 39 fe             	cmp    rsi,rdi
  401258:	48 85 c0             	test   rax,rax
  40125b:	90                   	nop
  40125c:	48 01 f3             	add    rbx,rsi
  40125f:	48 39 ff             	cmp    rdi,rdi
  401262:	cc                   	int3   
  401263:	48 85 c0             	test   rax,rax
  401266:	fc                   	cld    
  401267:	90                   	nop
  401268:	90                   	nop
  401269:	48 f7 eb             	imul   rbx
  40126c:	cc                   	int3   
  40126d:	ff c7                	inc    edi
  40126f:	48 01 d7             	add    rdi,rdx
  401272:	fc                   	cld    
  401273:	fd                   	std    
  401274:	48 f7 eb             	imul   rbx
  401277:	fc                   	cld    
  401278:	48 f7 e6             	mul    rsi
  40127b:	cc                   	int3   
  40127c:	51                   	push   rcx
  40127d:	48 c7 c0 27 00 00 00 	mov    rax,0x27
  401284:	0f 05                	syscall 
  401286:	59                   	pop    rcx
  401287:	48 01 c0             	add    rax,rax
  40128a:	fc                   	cld    
  40128b:	48 ff cb             	dec    rbx
  40128e:	fd                   	std    
  40128f:	f8                   	clc    
  401290:	c6 04 25 c2 71 62 00 	mov    BYTE PTR ds:0x6271c2,0xa6
  401297:	a6 
  401298:	48 ff c8             	dec    rax
  40129b:	48 f7 ef             	imul   rdi
  40129e:	f8                   	clc    
  40129f:	48 31 fb             	xor    rbx,rdi
  4012a2:	48 29 d2             	sub    rdx,rdx
  4012a5:	48 09 d6             	or     rsi,rdx
  4012a8:	48 09 d0             	or     rax,rdx
  4012ab:	48 31 d7             	xor    rdi,rdx
  4012ae:	cc                   	int3   
  4012af:	f7 ee                	imul   esi
  4012b1:	48 29 f0             	sub    rax,rsi
  4012b4:	48 21 db             	and    rbx,rbx
  4012b7:	48 f7 eb             	imul   rbx
  4012ba:	51                   	push   rcx
  4012bb:	48 c7 c0 6f 00 00 00 	mov    rax,0x6f
  4012c2:	0f 05                	syscall 
  4012c4:	59                   	pop    rcx
  4012c5:	fc                   	cld    
  4012c6:	48 89 f0             	mov    rax,rsi
  4012c9:	48 31 f0             	xor    rax,rsi
  4012cc:	c6 04 25 bb 71 62 00 	mov    BYTE PTR ds:0x6271bb,0xe1
  4012d3:	e1 
  4012d4:	c6 04 25 a7 71 62 00 	mov    BYTE PTR ds:0x6271a7,0x50
  4012db:	50 
  4012dc:	cc                   	int3   
  4012dd:	89 ff                	mov    edi,edi
  4012df:	48 ff c2             	inc    rdx
  4012e2:	48 ff c7             	inc    rdi
  4012e5:	90                   	nop
  4012e6:	48 21 f3             	and    rbx,rsi
  4012e9:	48 f7 ee             	imul   rsi
  4012ec:	48 89 df             	mov    rdi,rbx
  4012ef:	48 ff c6             	inc    rsi
  4012f2:	cc                   	int3   
  4012f3:	01 d8                	add    eax,ebx
  4012f5:	48 f7 e8             	imul   rax
  4012f8:	cc                   	int3   
  4012f9:	f7 e6                	mul    esi
  4012fb:	48 ff cb             	dec    rbx
  4012fe:	fc                   	cld    
  4012ff:	48 f7 e7             	mul    rdi
  401302:	48 ff cb             	dec    rbx
  401305:	48 f7 e3             	mul    rbx
  401308:	48 f7 ea             	imul   rdx
  40130b:	48 ff ce             	dec    rsi
  40130e:	48 f7 ee             	imul   rsi
  401311:	f9                   	stc    
  401312:	48 89 f2             	mov    rdx,rsi
  401315:	fd                   	std    
  401316:	48 ff cb             	dec    rbx
  401319:	51                   	push   rcx
  40131a:	48 c7 c0 68 00 00 00 	mov    rax,0x68
  401321:	0f 05                	syscall 
  401323:	59                   	pop    rcx
  401324:	48 f7 da             	neg    rdx
  401327:	90                   	nop
  401328:	48 f7 e2             	mul    rdx
  40132b:	48 f7 eb             	imul   rbx
  40132e:	48 ff c7             	inc    rdi
  401331:	48 09 fa             	or     rdx,rdi
  401334:	48 ff ce             	dec    rsi
  401337:	fc                   	cld    
  401338:	90                   	nop
  401339:	48 ff c3             	inc    rbx
  40133c:	48 ff c6             	inc    rsi
  40133f:	51                   	push   rcx
  401340:	48 c7 c0 18 00 00 00 	mov    rax,0x18
  401347:	0f 05                	syscall 
  401349:	59                   	pop    rcx
  40134a:	48 f7 de             	neg    rsi
  40134d:	48 ff c7             	inc    rdi
  401350:	48 31 fe             	xor    rsi,rdi
  401353:	48 ff cb             	dec    rbx
  401356:	48 f7 d8             	neg    rax
  401359:	48 85 fe             	test   rsi,rdi
  40135c:	fd                   	std    
  40135d:	90                   	nop
  40135e:	48 ff ce             	dec    rsi
  401361:	fc                   	cld    
  401362:	fd                   	std    
  401363:	fc                   	cld    
  401364:	48 85 ff             	test   rdi,rdi
  401367:	cc                   	int3   
  401368:	48 c7 c0 6b 00 00 00 	mov    rax,0x6b
  40136f:	0f 05                	syscall 
  401371:	59                   	pop    rcx
  401372:	fd                   	std    
  401373:	48 f7 e2             	mul    rdx
  401376:	cc                   	int3   
  401377:	c6 04 25 bb 71 62 00 	mov    BYTE PTR ds:0x6271bb,0xbf
  40137e:	bf 
  40137f:	f9                   	stc    
  401380:	cc                   	int3   
  401381:	f7 de                	neg    esi
  401383:	fc                   	cld    
  401384:	48 ff ce             	dec    rsi
  401387:	48 f7 db             	neg    rbx
  40138a:	90                   	nop
  40138b:	f9                   	stc    
  40138c:	f9                   	stc    
  40138d:	90                   	nop
  40138e:	48 31 de             	xor    rsi,rbx
  401391:	fd                   	std    
  401392:	fd                   	std    
  401393:	48 01 f8             	add    rax,rdi
  401396:	cc                   	int3   
  401397:	f7 ef                	imul   edi
  401399:	fc                   	cld    
  40139a:	48 f7 e7             	mul    rdi
  40139d:	f8                   	clc    
  40139e:	48 21 d8             	and    rax,rbx
  4013a1:	48 f7 ee             	imul   rsi
  4013a4:	48 ff c8             	dec    rax
  4013a7:	48 f7 da             	neg    rdx
  4013aa:	48 ff cb             	dec    rbx
  4013ad:	fd                   	std    
  4013ae:	48 f7 e3             	mul    rbx
  4013b1:	c6 04 25 c8 71 62 00 	mov    BYTE PTR ds:0x6271c8,0x5e
  4013b8:	5e 
  4013b9:	c6 04 25 bd 71 62 00 	mov    BYTE PTR ds:0x6271bd,0x4a
  4013c0:	4a 
  4013c1:	c6 04 25 b4 71 62 00 	mov    BYTE PTR ds:0x6271b4,0x94
  4013c8:	94 
  4013c9:	48 ff cf             	dec    rdi
  4013cc:	48 f7 db             	neg    rbx
  4013cf:	fd                   	std    
  4013d0:	48 f7 e7             	mul    rdi
  4013d3:	48 f7 da             	neg    rdx
  4013d6:	48 01 f7             	add    rdi,rsi
  4013d9:	48 39 df             	cmp    rdi,rbx
  4013dc:	fd                   	std    
  4013dd:	cc                   	int3   
  4013de:	04 25                	add    al,0x25
  4013e0:	be 71 62 00 ca       	mov    esi,0xca006271
  4013e5:	48 85 d0             	test   rax,rdx
  4013e8:	48 01 c7             	add    rdi,rax
  4013eb:	48 f7 eb             	imul   rbx
  4013ee:	90                   	nop
  4013ef:	48 f7 ea             	imul   rdx
  4013f2:	48 ff c8             	dec    rax
  4013f5:	48 f7 e6             	mul    rsi
  4013f8:	48 96                	xchg   rsi,rax
  4013fa:	f8                   	clc    
  4013fb:	48 31 d0             	xor    rax,rdx
  4013fe:	90                   	nop
  4013ff:	48 ff ce             	dec    rsi
  401402:	48 ff c3             	inc    rbx
  401405:	f9                   	stc    
  401406:	fc                   	cld    
  401407:	48 ff c6             	inc    rsi
  40140a:	48 31 fa             	xor    rdx,rdi
  40140d:	48 92                	xchg   rdx,rax
  40140f:	fd                   	std    
  401410:	51                   	push   rcx
  401411:	48 c7 c0 66 00 00 00 	mov    rax,0x66
  401418:	0f 05                	syscall 
  40141a:	59                   	pop    rcx
  40141b:	48 ff ce             	dec    rsi
  40141e:	cc                   	int3   
  40141f:	85 fe                	test   esi,edi
  401421:	51                   	push   rcx
  401422:	48 c7 c0 68 00 00 00 	mov    rax,0x68
  401429:	0f 05                	syscall 
  40142b:	59                   	pop    rcx
  40142c:	48 09 d3             	or     rbx,rdx
  40142f:	48 31 de             	xor    rsi,rbx
  401432:	48 31 de             	xor    rsi,rbx
  401435:	48 f7 e6             	mul    rsi
  401438:	f8                   	clc    
  401439:	f9                   	stc    
  40143a:	f8                   	clc    
  40143b:	cc                   	int3   
  40143c:	29 f2                	sub    edx,esi
  40143e:	c6 04 25 9c 71 62 00 	mov    BYTE PTR ds:0x62719c,0xfa
  401445:	fa 
  401446:	fd                   	std    
  401447:	fc                   	cld    
  401448:	48 29 f8             	sub    rax,rdi
  40144b:	cc                   	int3   
  40144c:	89 d0                	mov    eax,edx
  40144e:	48 31 c7             	xor    rdi,rax
  401451:	48 f7 e3             	mul    rbx
  401454:	48 ff c0             	inc    rax
  401457:	48 f7 ea             	imul   rdx
  40145a:	fd                   	std    
  40145b:	48 f7 da             	neg    rdx
  40145e:	f8                   	clc    
  40145f:	f8                   	clc    
  401460:	48 f7 de             	neg    rsi
  401463:	f9                   	stc    
  401464:	48 ff c3             	inc    rbx
  401467:	fd                   	std    
  401468:	48 39 f8             	cmp    rax,rdi
  40146b:	48 01 d7             	add    rdi,rdx
  40146e:	fc                   	cld    
  40146f:	48 21 c3             	and    rbx,rax
  401472:	48 09 c0             	or     rax,rax
  401475:	cc                   	int3   
  401476:	f7 d8                	neg    eax
  401478:	fc                   	cld    
  401479:	48 89 da             	mov    rdx,rbx
  40147c:	48 ff ca             	dec    rdx
  40147f:	90                   	nop
  401480:	48 f7 ef             	imul   rdi
  401483:	48 09 c6             	or     rsi,rax
  401486:	c6 04 25 b5 71 62 00 	mov    BYTE PTR ds:0x6271b5,0x40
  40148d:	40 
  40148e:	48 01 c3             	add    rbx,rax
  401491:	f9                   	stc    
  401492:	48 ff c2             	inc    rdx
  401495:	48 21 c6             	and    rsi,rax
  401498:	48 f7 ee             	imul   rsi
  40149b:	48 f7 e6             	mul    rsi
  40149e:	f9                   	stc    
  40149f:	48 ff c0             	inc    rax
  4014a2:	48 09 fb             	or     rbx,rdi
  4014a5:	fc                   	cld    
  4014a6:	48 31 da             	xor    rdx,rbx
  4014a9:	cc                   	int3   
  4014aa:	ff c8                	dec    eax
  4014ac:	51                   	push   rcx
  4014ad:	48 c7 c0 18 00 00 00 	mov    rax,0x18
  4014b4:	0f 05                	syscall 
  4014b6:	59                   	pop    rcx
  4014b7:	fd                   	std    
  4014b8:	48 f7 da             	neg    rdx
  4014bb:	51                   	push   rcx
  4014bc:	cc                   	int3   
  4014bd:	c7 c0 68 00 00 00    	mov    eax,0x68
  4014c3:	cc                   	int3   
  4014c4:	05 59 fc 48 ff       	add    eax,0xff48fc59
  4014c9:	c3                   	ret    
  4014ca:	cc                   	int3   
  4014cb:	ff cb                	dec    ebx
  4014cd:	51                   	push   rcx
  4014ce:	48 c7 c0 27 00 00 00 	mov    rax,0x27
  4014d5:	0f 05                	syscall 
  4014d7:	59                   	pop    rcx
  4014d8:	48 85 da             	test   rdx,rbx
  4014db:	48 21 ff             	and    rdi,rdi
  4014de:	48 ff cf             	dec    rdi
  4014e1:	48 ff cf             	dec    rdi
  4014e4:	48 f7 ee             	imul   rsi
  4014e7:	f8                   	clc    
  4014e8:	48 f7 ee             	imul   rsi
  4014eb:	48 09 d6             	or     rsi,rdx
  4014ee:	48 ff ca             	dec    rdx
  4014f1:	48 ff ca             	dec    rdx
  4014f4:	f9                   	stc    
  4014f5:	48 f7 db             	neg    rbx
  4014f8:	48 92                	xchg   rdx,rax
  4014fa:	48 31 f0             	xor    rax,rsi
  4014fd:	48 ff cf             	dec    rdi
  401500:	48 09 da             	or     rdx,rbx
  401503:	90                   	nop
  401504:	51                   	push   rcx
  401505:	cc                   	int3   
  401506:	c7 c0 68 00 00 00    	mov    eax,0x68
  40150c:	0f 05                	syscall 
  40150e:	59                   	pop    rcx
  40150f:	48 85 f3             	test   rbx,rsi
  401512:	48 09 d8             	or     rax,rbx
  401515:	51                   	push   rcx
  401516:	cc                   	int3   
  401517:	c7 c0 6f 00 00 00    	mov    eax,0x6f
  40151d:	0f 05                	syscall 
  40151f:	cc                   	int3   
  401520:	f9                   	stc    
  401521:	51                   	push   rcx
  401522:	48 c7 c0 6b 00 00 00 	mov    rax,0x6b
  401529:	0f 05                	syscall 
  40152b:	59                   	pop    rcx
  40152c:	48 f7 e8             	imul   rax
  40152f:	48 ff c0             	inc    rax
  401532:	90                   	nop
  401533:	90                   	nop
  401534:	48 f7 db             	neg    rbx
  401537:	48 89 da             	mov    rdx,rbx
  40153a:	48 f7 de             	neg    rsi
  40153d:	48 f7 e7             	mul    rdi
  401540:	cc                   	int3   
  401541:	c6 04 25 9d 71 62 00 	mov    BYTE PTR ds:0x62719d,0x5
  401548:	05 
  401549:	48 ff c2             	inc    rdx
  40154c:	48 ff c6             	inc    rsi
  40154f:	48 ff ce             	dec    rsi
  401552:	f9                   	stc    
  401553:	51                   	push   rcx
  401554:	48 c7 c0 6e 00 00 00 	mov    rax,0x6e
  40155b:	0f 05                	syscall 
  40155d:	59                   	pop    rcx
  40155e:	48 f7 e3             	mul    rbx
  401561:	48 f7 e2             	mul    rdx
  401564:	f9                   	stc    
  401565:	48 39 f6             	cmp    rsi,rsi
  401568:	48 89 fa             	mov    rdx,rdi
  40156b:	48 ff c3             	inc    rbx
  40156e:	cc                   	int3   
  40156f:	f7 df                	neg    edi
  401571:	48 29 da             	sub    rdx,rbx
  401574:	48 89 db             	mov    rbx,rbx
  401577:	48 92                	xchg   rdx,rax
  401579:	48 29 de             	sub    rsi,rbx
  40157c:	48 ff ce             	dec    rsi
  40157f:	48 ff ce             	dec    rsi
  401582:	48 21 f8             	and    rax,rdi
  401585:	48 f7 eb             	imul   rbx
  401588:	fc                   	cld    
  401589:	cc                   	int3   
  40158a:	01 c3                	add    ebx,eax
  40158c:	48 31 db             	xor    rbx,rbx
  40158f:	48 89 fb             	mov    rbx,rdi
  401592:	fd                   	std    
  401593:	c6 04 25 c1 71 62 00 	mov    BYTE PTR ds:0x6271c1,0x7c
  40159a:	7c 
  40159b:	fc                   	cld    
  40159c:	48 29 fb             	sub    rbx,rdi
  40159f:	48 31 f3             	xor    rbx,rsi
  4015a2:	48 f7 ea             	imul   rdx
  4015a5:	48 29 f6             	sub    rsi,rsi
  4015a8:	48 f7 ea             	imul   rdx
  4015ab:	48 85 f3             	test   rbx,rsi
  4015ae:	48 89 c2             	mov    rdx,rax
  4015b1:	f8                   	clc    
  4015b2:	cc                   	int3   
  4015b3:	f7 ee                	imul   esi
  4015b5:	f9                   	stc    
  4015b6:	cc                   	int3   
  4015b7:	21 da                	and    edx,ebx
  4015b9:	48 f7 da             	neg    rdx
  4015bc:	c6 04 25 bf 71 62 00 	mov    BYTE PTR ds:0x6271bf,0x44
  4015c3:	44 
  4015c4:	51                   	push   rcx
  4015c5:	48 c7 c0 66 00 00 00 	mov    rax,0x66
  4015cc:	0f 05                	syscall 
  4015ce:	59                   	pop    rcx
  4015cf:	48 ff ce             	dec    rsi
  4015d2:	48 01 d8             	add    rax,rbx
  4015d5:	48 39 f2             	cmp    rdx,rsi
  4015d8:	fd                   	std    
  4015d9:	48 f7 e6             	mul    rsi
  4015dc:	cc                   	int3   
  4015dd:	48 29 d0             	sub    rax,rdx
  4015e0:	48 f7 de             	neg    rsi
  4015e3:	48 21 fa             	and    rdx,rdi
  4015e6:	90                   	nop
  4015e7:	fd                   	std    
  4015e8:	48 f7 d8             	neg    rax
  4015eb:	48 85 c3             	test   rbx,rax
  4015ee:	cc                   	int3   
  4015ef:	04 25                	add    al,0x25
  4015f1:	9e                   	sahf   
  4015f2:	71 62                	jno    401656 <_start+0x15a6>
  4015f4:	00 cb                	add    bl,cl
  4015f6:	48 f7 e6             	mul    rsi
  4015f9:	48 f7 ea             	imul   rdx
  4015fc:	48 ff cf             	dec    rdi
  4015ff:	cc                   	int3   
  401600:	48 ff c6             	inc    rsi
  401603:	48 f7 d8             	neg    rax
  401606:	f9                   	stc    
  401607:	48 ff ca             	dec    rdx
  40160a:	fc                   	cld    
  40160b:	48 29 f0             	sub    rax,rsi
  40160e:	48 ff c7             	inc    rdi
  401611:	fd                   	std    
  401612:	48 f7 da             	neg    rdx
  401615:	cc                   	int3   
  401616:	f7 e7                	mul    edi
  401618:	cc                   	int3   
  401619:	29 ff                	sub    edi,edi
  40161b:	c6 04 25 df 71 62 00 	mov    BYTE PTR ds:0x6271df,0x64
  401622:	64 
  401623:	f9                   	stc    
  401624:	48 f7 df             	neg    rdi
  401627:	f8                   	clc    
  401628:	48 f7 df             	neg    rdi
  40162b:	51                   	push   rcx
  40162c:	48 c7 c0 6f 00 00 00 	mov    rax,0x6f
  401633:	0f 05                	syscall 
  401635:	59                   	pop    rcx
  401636:	48 21 f7             	and    rdi,rsi
  401639:	f8                   	clc    
  40163a:	48 09 fb             	or     rbx,rdi
  40163d:	f8                   	clc    
  40163e:	51                   	push   rcx
  40163f:	48 c7 c0 68 00 00 00 	mov    rax,0x68
  401646:	0f 05                	syscall 
  401648:	59                   	pop    rcx
  401649:	c6 04 25 9a 71 62 00 	mov    BYTE PTR ds:0x62719a,0xec
  401650:	ec 
  401651:	f9                   	stc    
  401652:	48 f7 e6             	mul    rsi
  401655:	48 f7 df             	neg    rdi
  401658:	48 01 c6             	add    rsi,rax
  40165b:	48 09 df             	or     rdi,rbx
  40165e:	cc                   	int3   
  40165f:	31 c2                	xor    edx,eax
  401661:	48 01 f7             	add    rdi,rsi
  401664:	fd                   	std    
  401665:	fd                   	std    
  401666:	cc                   	int3   
  401667:	48 f7 e2             	mul    rdx
  40166a:	f8                   	clc    
  40166b:	48 f7 e8             	imul   rax
  40166e:	51                   	push   rcx
  40166f:	48 c7 c0 27 00 00 00 	mov    rax,0x27
  401676:	0f 05                	syscall 
  401678:	cc                   	int3   
  401679:	cc                   	int3   
  40167a:	48 29 c2             	sub    rdx,rax
  40167d:	90                   	nop
  40167e:	cc                   	int3   
  40167f:	f7 ef                	imul   edi
  401681:	cc                   	int3   
  401682:	87 d2                	xchg   edx,edx
  401684:	48 39 c3             	cmp    rbx,rax
  401687:	90                   	nop
  401688:	48 ff ce             	dec    rsi
  40168b:	48 39 ff             	cmp    rdi,rdi
  40168e:	48 31 c6             	xor    rsi,rax
  401691:	48 01 c3             	add    rbx,rax
  401694:	48 f7 e3             	mul    rbx
  401697:	48 f7 d8             	neg    rax
  40169a:	48 f7 e3             	mul    rbx
  40169d:	48 f7 ea             	imul   rdx
  4016a0:	c6 04 25 a5 71 62 00 	mov    BYTE PTR ds:0x6271a5,0x1a
  4016a7:	1a 
  4016a8:	90                   	nop
  4016a9:	48 ff c3             	inc    rbx
  4016ac:	90                   	nop
  4016ad:	48 29 de             	sub    rsi,rbx
  4016b0:	51                   	push   rcx
  4016b1:	cc                   	int3   
  4016b2:	c7 c0 68 00 00 00    	mov    eax,0x68
  4016b8:	0f 05                	syscall 
  4016ba:	59                   	pop    rcx
  4016bb:	48 09 fb             	or     rbx,rdi
  4016be:	48 ff c0             	inc    rax
  4016c1:	f8                   	clc    
  4016c2:	48 89 d8             	mov    rax,rbx
  4016c5:	c6 04 25 e0 71 62 00 	mov    BYTE PTR ds:0x6271e0,0x5f
  4016cc:	5f 
  4016cd:	51                   	push   rcx
  4016ce:	48 c7 c0 6f 00 00 00 	mov    rax,0x6f
  4016d5:	0f 05                	syscall 
  4016d7:	59                   	pop    rcx
  4016d8:	f9                   	stc    
  4016d9:	48 21 db             	and    rbx,rbx
  4016dc:	fd                   	std    
  4016dd:	48 ff cf             	dec    rdi
  4016e0:	f8                   	clc    
  4016e1:	fd                   	std    
  4016e2:	48 f7 ea             	imul   rdx
  4016e5:	48 ff ce             	dec    rsi
  4016e8:	48 f7 e0             	mul    rax
  4016eb:	48 87 d7             	xchg   rdi,rdx
  4016ee:	48 21 de             	and    rsi,rbx
  4016f1:	48 ff c8             	dec    rax
  4016f4:	48 29 f7             	sub    rdi,rsi
  4016f7:	90                   	nop
  4016f8:	f8                   	clc    
  4016f9:	48 39 c6             	cmp    rsi,rax
  4016fc:	48 f7 eb             	imul   rbx
  4016ff:	90                   	nop
  401700:	48 ff ca             	dec    rdx
  401703:	48 ff ce             	dec    rsi
  401706:	fd                   	std    
  401707:	f9                   	stc    
  401708:	48 21 f0             	and    rax,rsi
  40170b:	c6 04 25 c0 71 62 00 	mov    BYTE PTR ds:0x6271c0,0x61
  401712:	61 
  401713:	c6 04 25 e1 71 62 00 	mov    BYTE PTR ds:0x6271e1,0x61
  40171a:	61 
  40171b:	c6 04 25 ac 71 62 00 	mov    BYTE PTR ds:0x6271ac,0x28
  401722:	28 
  401723:	48 ff c0             	inc    rax
  401726:	cc                   	int3   
  401727:	89 ff                	mov    edi,edi
  401729:	fc                   	cld    
  40172a:	48 31 fe             	xor    rsi,rdi
  40172d:	f9                   	stc    
  40172e:	90                   	nop
  40172f:	48 39 d0             	cmp    rax,rdx
  401732:	48 ff c3             	inc    rbx
  401735:	48 29 f0             	sub    rax,rsi
  401738:	48 87 d3             	xchg   rbx,rdx
  40173b:	fc                   	cld    
  40173c:	48 f7 e0             	mul    rax
  40173f:	48 f7 e0             	mul    rax
  401742:	48 21 c2             	and    rdx,rax
  401745:	48 f7 db             	neg    rbx
  401748:	cc                   	int3   
  401749:	ff c3                	inc    ebx
  40174b:	48 f7 e8             	imul   rax
  40174e:	48 f7 ef             	imul   rdi
  401751:	48 f7 eb             	imul   rbx
  401754:	48 39 c7             	cmp    rdi,rax
  401757:	cc                   	int3   
  401758:	ff c3                	inc    ebx
  40175a:	48 ff c6             	inc    rsi
  40175d:	48 f7 e0             	mul    rax
  401760:	90                   	nop
  401761:	48 31 c3             	xor    rbx,rax
  401764:	cc                   	int3   
  401765:	48 c7 c0 6b 00 00 00 	mov    rax,0x6b
  40176c:	0f 05                	syscall 
  40176e:	59                   	pop    rcx
  40176f:	90                   	nop
  401770:	fd                   	std    
  401771:	51                   	push   rcx
  401772:	48 c7 c0 68 00 00 00 	mov    rax,0x68
  401779:	0f 05                	syscall 
  40177b:	59                   	pop    rcx
  40177c:	cc                   	int3   
  40177d:	fc                   	cld    
  40177e:	51                   	push   rcx
  40177f:	48 c7 c0 27 00 00 00 	mov    rax,0x27
  401786:	0f 05                	syscall 
  401788:	59                   	pop    rcx
  401789:	48 89 d7             	mov    rdi,rdx
  40178c:	fd                   	std    
  40178d:	48 89 c2             	mov    rdx,rax
  401790:	f8                   	clc    
  401791:	48 21 de             	and    rsi,rbx
  401794:	cc                   	int3   
  401795:	48 ff cf             	dec    rdi
  401798:	48 01 df             	add    rdi,rbx
  40179b:	90                   	nop
  40179c:	f8                   	clc    
  40179d:	c6 04 25 9e 71 62 00 	mov    BYTE PTR ds:0x62719e,0x9b
  4017a4:	9b 
  4017a5:	48 f7 e2             	mul    rdx
  4017a8:	48 85 f2             	test   rdx,rsi
  4017ab:	48 39 fe             	cmp    rsi,rdi
  4017ae:	48 f7 de             	neg    rsi
  4017b1:	48 01 f6             	add    rsi,rsi
  4017b4:	90                   	nop
  4017b5:	90                   	nop
  4017b6:	f8                   	clc    
  4017b7:	90                   	nop
  4017b8:	48 f7 de             	neg    rsi
  4017bb:	48 ff c8             	dec    rax
  4017be:	48 09 da             	or     rdx,rbx
  4017c1:	48 ff cb             	dec    rbx
  4017c4:	fd                   	std    
  4017c5:	48 f7 e2             	mul    rdx
  4017c8:	48 ff cf             	dec    rdi
  4017cb:	f8                   	clc    
  4017cc:	cc                   	int3   
  4017cd:	48 f7 ee             	imul   rsi
  4017d0:	cc                   	int3   
  4017d1:	04 25                	add    al,0x25
  4017d3:	b7 71                	mov    bh,0x71
  4017d5:	62                   	(bad)  
  4017d6:	00 4f c6             	add    BYTE PTR [rdi-0x3a],cl
  4017d9:	04 25                	add    al,0x25
  4017db:	97                   	xchg   edi,eax
  4017dc:	71 62                	jno    401840 <_start+0x1790>
  4017de:	00 ac 48 85 ff 90 48 	add    BYTE PTR [rax+rcx*2+0x4890ff85],ch
  4017e5:	89 c6                	mov    esi,eax
  4017e7:	48 29 db             	sub    rbx,rbx
  4017ea:	48 f7 ef             	imul   rdi
  4017ed:	48 ff c7             	inc    rdi
  4017f0:	fd                   	std    
  4017f1:	48 09 d3             	or     rbx,rdx
  4017f4:	90                   	nop
  4017f5:	48 21 da             	and    rdx,rbx
  4017f8:	48 39 f2             	cmp    rdx,rsi
  4017fb:	48 f7 db             	neg    rbx
  4017fe:	48 09 f6             	or     rsi,rsi
  401801:	48 89 c6             	mov    rsi,rax
  401804:	48 39 f8             	cmp    rax,rdi
  401807:	f9                   	stc    
  401808:	48 f7 ee             	imul   rsi
  40180b:	48 93                	xchg   rbx,rax
  40180d:	fd                   	std    
  40180e:	48 f7 db             	neg    rbx
  401811:	cc                   	int3   
  401812:	ff c0                	inc    eax
  401814:	48 31 f2             	xor    rdx,rsi
  401817:	48 89 ff             	mov    rdi,rdi
  40181a:	48 f7 da             	neg    rdx
  40181d:	48 01 c0             	add    rax,rax
  401820:	f9                   	stc    
  401821:	f9                   	stc    
  401822:	fd                   	std    
  401823:	f9                   	stc    
  401824:	f8                   	clc    
  401825:	f9                   	stc    
  401826:	cc                   	int3   
  401827:	48 39 d6             	cmp    rsi,rdx
  40182a:	48 01 d7             	add    rdi,rdx
  40182d:	90                   	nop
  40182e:	cc                   	int3   
  40182f:	85 c3                	test   ebx,eax
  401831:	fd                   	std    
  401832:	f8                   	clc    
  401833:	48 f7 db             	neg    rbx
  401836:	48 21 f8             	and    rax,rdi
  401839:	48 f7 e0             	mul    rax
  40183c:	cc                   	int3   
  40183d:	48 31 f6             	xor    rsi,rsi
  401840:	48 f7 eb             	imul   rbx
  401843:	fc                   	cld    
  401844:	f8                   	clc    
  401845:	48 f7 e8             	imul   rax
  401848:	cc                   	int3   
  401849:	90                   	nop
  40184a:	48 21 d0             	and    rax,rdx
  40184d:	f8                   	clc    
  40184e:	cc                   	int3   
  40184f:	cc                   	int3   
  401850:	c7 c0 6b 00 00 00    	mov    eax,0x6b
  401856:	0f 05                	syscall 
  401858:	59                   	pop    rcx
  401859:	48 01 c6             	add    rsi,rax
  40185c:	48 ff c7             	inc    rdi
  40185f:	48 09 ff             	or     rdi,rdi
  401862:	c6 04 25 e2 71 62 00 	mov    BYTE PTR ds:0x6271e2,0x6c
  401869:	6c 
  40186a:	f8                   	clc    
  40186b:	51                   	push   rcx
  40186c:	48 c7 c0 6f 00 00 00 	mov    rax,0x6f
  401873:	0f 05                	syscall 
  401875:	59                   	pop    rcx
  401876:	cc                   	int3   
  401877:	f7 ef                	imul   edi
  401879:	90                   	nop
  40187a:	90                   	nop
  40187b:	48 89 c6             	mov    rsi,rax
  40187e:	f8                   	clc    
  40187f:	48 85 de             	test   rsi,rbx
  401882:	48 ff c8             	dec    rax
  401885:	f9                   	stc    
  401886:	48 f7 df             	neg    rdi
  401889:	51                   	push   rcx
  40188a:	cc                   	int3   
  40188b:	c7 c0 18 00 00 00    	mov    eax,0x18
  401891:	0f 05                	syscall 
  401893:	59                   	pop    rcx
  401894:	48 39 de             	cmp    rsi,rbx
  401897:	48 31 c6             	xor    rsi,rax
  40189a:	48 f7 eb             	imul   rbx
  40189d:	48 f7 e7             	mul    rdi
  4018a0:	48 f7 de             	neg    rsi
  4018a3:	48 01 f8             	add    rax,rdi
  4018a6:	51                   	push   rcx
  4018a7:	48 c7 c0 6c 00 00 00 	mov    rax,0x6c
  4018ae:	0f 05                	syscall 
  4018b0:	59                   	pop    rcx
  4018b1:	48 09 de             	or     rsi,rbx
  4018b4:	cc                   	int3   
  4018b5:	48 29 f0             	sub    rax,rsi
  4018b8:	48 39 fb             	cmp    rbx,rdi
  4018bb:	cc                   	int3   
  4018bc:	85 de                	test   esi,ebx
  4018be:	48 f7 de             	neg    rsi
  4018c1:	fc                   	cld    
  4018c2:	f9                   	stc    
  4018c3:	48 f7 e2             	mul    rdx
  4018c6:	48 85 d2             	test   rdx,rdx
  4018c9:	51                   	push   rcx
  4018ca:	48 c7 c0 6c 00 00 00 	mov    rax,0x6c
  4018d1:	0f 05                	syscall 
  4018d3:	cc                   	int3   
  4018d4:	51                   	push   rcx
  4018d5:	48 c7 c0 6c 00 00 00 	mov    rax,0x6c
  4018dc:	0f 05                	syscall 
  4018de:	cc                   	int3   
  4018df:	cc                   	int3   
  4018e0:	01 ff                	add    edi,edi
  4018e2:	cc                   	int3   
  4018e3:	ff c0                	inc    eax
  4018e5:	48 ff ce             	dec    rsi
  4018e8:	48 ff ca             	dec    rdx
  4018eb:	48 01 fe             	add    rsi,rdi
  4018ee:	51                   	push   rcx
  4018ef:	48 c7 c0 66 00 00 00 	mov    rax,0x66
  4018f6:	0f 05                	syscall 
  4018f8:	59                   	pop    rcx
  4018f9:	51                   	push   rcx
  4018fa:	48 c7 c0 6b 00 00 00 	mov    rax,0x6b
  401901:	0f 05                	syscall 
  401903:	59                   	pop    rcx
  401904:	c6 04 25 e3 71 62 00 	mov    BYTE PTR ds:0x6271e3,0x6c
  40190b:	6c 
  40190c:	48 f7 de             	neg    rsi
  40190f:	48 ff cb             	dec    rbx
  401912:	48 f7 db             	neg    rbx
  401915:	48 09 c7             	or     rdi,rax
  401918:	48 31 fe             	xor    rsi,rdi
  40191b:	48 01 c7             	add    rdi,rax
  40191e:	48 ff c2             	inc    rdx
  401921:	48 f7 d8             	neg    rax
  401924:	f9                   	stc    
  401925:	cc                   	int3   
  401926:	21 f8                	and    eax,edi
  401928:	48 f7 e0             	mul    rax
  40192b:	48 ff c6             	inc    rsi
  40192e:	48 ff c0             	inc    rax
  401931:	f8                   	clc    
  401932:	c6 04 25 9c 71 62 00 	mov    BYTE PTR ds:0x62719c,0x16
  401939:	16 
  40193a:	48 39 fb             	cmp    rbx,rdi
  40193d:	f8                   	clc    
  40193e:	48 01 c0             	add    rax,rax
  401941:	fd                   	std    
  401942:	48 ff c6             	inc    rsi
  401945:	48 87 f2             	xchg   rdx,rsi
  401948:	48 39 d3             	cmp    rbx,rdx
  40194b:	48 ff ce             	dec    rsi
  40194e:	48 29 c0             	sub    rax,rax
  401951:	48 31 f6             	xor    rsi,rsi
  401954:	51                   	push   rcx
  401955:	48 c7 c0 18 00 00 00 	mov    rax,0x18
  40195c:	0f 05                	syscall 
  40195e:	59                   	pop    rcx
  40195f:	cc                   	int3   
  401960:	f7 ea                	imul   edx
  401962:	48 21 f8             	and    rax,rdi
  401965:	cc                   	int3   
  401966:	01 fa                	add    edx,edi
  401968:	cc                   	int3   
  401969:	48 21 fa             	and    rdx,rdi
  40196c:	cc                   	int3   
  40196d:	89 c6                	mov    esi,eax
  40196f:	f8                   	clc    
  401970:	48 39 fb             	cmp    rbx,rdi
  401973:	48 39 c3             	cmp    rbx,rax
  401976:	48 89 f7             	mov    rdi,rsi
  401979:	f9                   	stc    
  40197a:	48 87 db             	xchg   rbx,rbx
  40197d:	48 87 da             	xchg   rdx,rbx
  401980:	48 f7 db             	neg    rbx
  401983:	fc                   	cld    
  401984:	48 f7 e0             	mul    rax
  401987:	cc                   	int3   
  401988:	09 d7                	or     edi,edx
  40198a:	48 ff c6             	inc    rsi
  40198d:	48 f7 db             	neg    rbx
  401990:	48 89 f6             	mov    rsi,rsi
  401993:	48 f7 db             	neg    rbx
  401996:	fd                   	std    
  401997:	48 f7 e8             	imul   rax
  40199a:	fd                   	std    
  40199b:	fd                   	std    
  40199c:	48 f7 e8             	imul   rax
  40199f:	48 09 d8             	or     rax,rbx
  4019a2:	cc                   	int3   
  4019a3:	f7 e8                	imul   eax
  4019a5:	48 09 c0             	or     rax,rax
  4019a8:	fc                   	cld    
  4019a9:	48 ff c8             	dec    rax
  4019ac:	90                   	nop
  4019ad:	48 31 d0             	xor    rax,rdx
  4019b0:	48 85 c6             	test   rsi,rax
  4019b3:	48 01 ff             	add    rdi,rdi
  4019b6:	f8                   	clc    
  4019b7:	51                   	push   rcx
  4019b8:	48 c7 c0 66 00 00 00 	mov    rax,0x66
  4019bf:	0f 05                	syscall 
  4019c1:	59                   	pop    rcx
  4019c2:	48 09 d3             	or     rbx,rdx
  4019c5:	fd                   	std    
  4019c6:	48 f7 e6             	mul    rsi
  4019c9:	48 21 c7             	and    rdi,rax
  4019cc:	f9                   	stc    
  4019cd:	f8                   	clc    
  4019ce:	fd                   	std    
  4019cf:	48 85 f8             	test   rax,rdi
  4019d2:	48 29 fb             	sub    rbx,rdi
  4019d5:	90                   	nop
  4019d6:	fc                   	cld    
  4019d7:	f9                   	stc    
  4019d8:	cc                   	int3   
  4019d9:	48 ff c3             	inc    rbx
  4019dc:	48 f7 e6             	mul    rsi
  4019df:	f8                   	clc    
  4019e0:	51                   	push   rcx
  4019e1:	cc                   	int3   
  4019e2:	c7 c0 6f 00 00 00    	mov    eax,0x6f
  4019e8:	0f 05                	syscall 
  4019ea:	59                   	pop    rcx
  4019eb:	48 ff cf             	dec    rdi
  4019ee:	48 f7 ef             	imul   rdi
  4019f1:	48 ff c6             	inc    rsi
  4019f4:	fc                   	cld    
  4019f5:	48 ff cf             	dec    rdi
  4019f8:	48 09 c2             	or     rdx,rax
  4019fb:	48 85 d8             	test   rax,rbx
  4019fe:	f9                   	stc    
  4019ff:	48 09 fb             	or     rbx,rdi
  401a02:	fd                   	std    
  401a03:	f9                   	stc    
  401a04:	48 09 d6             	or     rsi,rdx
  401a07:	48 85 f3             	test   rbx,rsi
  401a0a:	48 f7 da             	neg    rdx
  401a0d:	fd                   	std    
  401a0e:	48 01 fa             	add    rdx,rdi
  401a11:	f9                   	stc    
  401a12:	fd                   	std    
  401a13:	fd                   	std    
  401a14:	48 f7 e2             	mul    rdx
  401a17:	fc                   	cld    
  401a18:	48 f7 da             	neg    rdx
  401a1b:	90                   	nop
  401a1c:	48 ff cf             	dec    rdi
  401a1f:	48 09 da             	or     rdx,rbx
  401a22:	fc                   	cld    
  401a23:	48 85 f8             	test   rax,rdi
  401a26:	48 f7 e0             	mul    rax
  401a29:	48 29 d2             	sub    rdx,rdx
  401a2c:	cc                   	int3   
  401a2d:	90                   	nop
  401a2e:	48 ff c6             	inc    rsi
  401a31:	f8                   	clc    
  401a32:	cc                   	int3   
  401a33:	ff c6                	inc    esi
  401a35:	48 09 f0             	or     rax,rsi
  401a38:	90                   	nop
  401a39:	48 21 fb             	and    rbx,rdi
  401a3c:	fc                   	cld    
  401a3d:	fc                   	cld    
  401a3e:	f9                   	stc    
  401a3f:	48 21 d0             	and    rax,rdx
  401a42:	48 87 d2             	xchg   rdx,rdx
  401a45:	fd                   	std    
  401a46:	fd                   	std    
  401a47:	f9                   	stc    
  401a48:	48 01 f3             	add    rbx,rsi
  401a4b:	51                   	push   rcx
  401a4c:	cc                   	int3   
  401a4d:	c7 c0 68 00 00 00    	mov    eax,0x68
  401a53:	0f 05                	syscall 
  401a55:	59                   	pop    rcx
  401a56:	51                   	push   rcx
  401a57:	48 c7 c0 18 00 00 00 	mov    rax,0x18
  401a5e:	0f 05                	syscall 
  401a60:	59                   	pop    rcx
  401a61:	51                   	push   rcx
  401a62:	48 c7 c0 6f 00 00 00 	mov    rax,0x6f
  401a69:	cc                   	int3   
  401a6a:	05 59 48 f7 e8       	add    eax,0xe8f74859
  401a6f:	48 f7 e2             	mul    rdx
  401a72:	f9                   	stc    
  401a73:	c6 04 25 a3 71 62 00 	mov    BYTE PTR ds:0x6271a3,0x9b
  401a7a:	9b 
  401a7b:	cc                   	int3   
  401a7c:	f9                   	stc    
  401a7d:	51                   	push   rcx
  401a7e:	cc                   	int3   
  401a7f:	c7 c0 6b 00 00 00    	mov    eax,0x6b
  401a85:	0f 05                	syscall 
  401a87:	59                   	pop    rcx
  401a88:	48 89 c7             	mov    rdi,rax
  401a8b:	48 f7 da             	neg    rdx
  401a8e:	48 21 fa             	and    rdx,rdi
  401a91:	f8                   	clc    
  401a92:	48 f7 e7             	mul    rdi
  401a95:	f8                   	clc    
  401a96:	f8                   	clc    
  401a97:	48 31 c6             	xor    rsi,rax
  401a9a:	fd                   	std    
  401a9b:	48 29 fe             	sub    rsi,rdi
  401a9e:	90                   	nop
  401a9f:	fd                   	std    
  401aa0:	c6 04 25 c7 71 62 00 	mov    BYTE PTR ds:0x6271c7,0xd1
  401aa7:	d1 
  401aa8:	fc                   	cld    
  401aa9:	48 f7 db             	neg    rbx
  401aac:	fc                   	cld    
  401aad:	f8                   	clc    
  401aae:	48 f7 e0             	mul    rax
  401ab1:	cc                   	int3   
  401ab2:	39 da                	cmp    edx,ebx
  401ab4:	51                   	push   rcx
  401ab5:	48 c7 c0 18 00 00 00 	mov    rax,0x18
  401abc:	0f 05                	syscall 
  401abe:	59                   	pop    rcx
  401abf:	cc                   	int3   
  401ac0:	f7 de                	neg    esi
  401ac2:	90                   	nop
  401ac3:	48 ff c0             	inc    rax
  401ac6:	48 f7 eb             	imul   rbx
  401ac9:	cc                   	int3   
  401aca:	f7 e0                	mul    eax
  401acc:	48 29 f6             	sub    rsi,rsi
  401acf:	48 89 fa             	mov    rdx,rdi
  401ad2:	48 ff cf             	dec    rdi
  401ad5:	48 ff c8             	dec    rax
  401ad8:	48 ff ce             	dec    rsi
  401adb:	48 f7 e2             	mul    rdx
  401ade:	cc                   	int3   
  401adf:	29 f0                	sub    eax,esi
  401ae1:	48 87 ff             	xchg   rdi,rdi
  401ae4:	f8                   	clc    
  401ae5:	48 f7 e6             	mul    rsi
  401ae8:	48 ff c8             	dec    rax
  401aeb:	51                   	push   rcx
  401aec:	48 c7 c0 6f 00 00 00 	mov    rax,0x6f
  401af3:	0f 05                	syscall 
  401af5:	59                   	pop    rcx
  401af6:	48 f7 e8             	imul   rax
  401af9:	48 01 db             	add    rbx,rbx
  401afc:	48 85 f0             	test   rax,rsi
  401aff:	48 f7 e7             	mul    rdi
  401b02:	48 89 d7             	mov    rdi,rdx
  401b05:	48 f7 ee             	imul   rsi
  401b08:	90                   	nop
  401b09:	48 21 c3             	and    rbx,rax
  401b0c:	48 87 d6             	xchg   rsi,rdx
  401b0f:	fd                   	std    
  401b10:	48 39 f2             	cmp    rdx,rsi
  401b13:	fc                   	cld    
  401b14:	51                   	push   rcx
  401b15:	48 c7 c0 6f 00 00 00 	mov    rax,0x6f
  401b1c:	0f 05                	syscall 
  401b1e:	cc                   	int3   
  401b1f:	48 29 f6             	sub    rsi,rsi
  401b22:	fc                   	cld    
  401b23:	cc                   	int3   
  401b24:	ff ca                	dec    edx
  401b26:	fc                   	cld    
  401b27:	fd                   	std    
  401b28:	fc                   	cld    
  401b29:	f9                   	stc    
  401b2a:	48 39 c7             	cmp    rdi,rax
  401b2d:	48 29 f2             	sub    rdx,rsi
  401b30:	48 01 da             	add    rdx,rbx
  401b33:	48 39 fb             	cmp    rbx,rdi
  401b36:	48 ff ca             	dec    rdx
  401b39:	48 39 f7             	cmp    rdi,rsi
  401b3c:	48 ff c0             	inc    rax
  401b3f:	fc                   	cld    
  401b40:	90                   	nop
  401b41:	48 f7 e6             	mul    rsi
  401b44:	fd                   	std    
  401b45:	c6 04 25 a4 71 62 00 	mov    BYTE PTR ds:0x6271a4,0x57
  401b4c:	57 
  401b4d:	90                   	nop
  401b4e:	f9                   	stc    
  401b4f:	48 f7 eb             	imul   rbx
  401b52:	f9                   	stc    
  401b53:	48 09 f7             	or     rdi,rsi
  401b56:	cc                   	int3   
  401b57:	f9                   	stc    
  401b58:	48 ff c6             	inc    rsi
  401b5b:	48 31 f7             	xor    rdi,rsi
  401b5e:	48 01 d3             	add    rbx,rdx
  401b61:	cc                   	int3   
  401b62:	ff c6                	inc    esi
  401b64:	48 85 c7             	test   rdi,rax
  401b67:	fc                   	cld    
  401b68:	48 f7 de             	neg    rsi
  401b6b:	48 21 fb             	and    rbx,rdi
  401b6e:	48 ff c7             	inc    rdi
  401b71:	48 39 d3             	cmp    rbx,rdx
  401b74:	cc                   	int3   
  401b75:	48 31 db             	xor    rbx,rbx
  401b78:	48 f7 e3             	mul    rbx
  401b7b:	48 ff ca             	dec    rdx
  401b7e:	fd                   	std    
  401b7f:	48 87 fb             	xchg   rbx,rdi
  401b82:	48 f7 e7             	mul    rdi
  401b85:	48 f7 da             	neg    rdx
  401b88:	fc                   	cld    
  401b89:	cc                   	int3   
  401b8a:	85 d6                	test   esi,edx
  401b8c:	90                   	nop
  401b8d:	48 ff c6             	inc    rsi
  401b90:	90                   	nop
  401b91:	48 f7 ea             	imul   rdx
  401b94:	48 f7 e8             	imul   rax
  401b97:	51                   	push   rcx
  401b98:	48 c7 c0 68 00 00 00 	mov    rax,0x68
  401b9f:	cc                   	int3   
  401ba0:	05 cc 48 f7 da       	add    eax,0xdaf748cc
  401ba5:	48 31 f3             	xor    rbx,rsi
  401ba8:	90                   	nop
  401ba9:	cc                   	int3   
  401baa:	f7 e0                	mul    eax
  401bac:	48 39 d0             	cmp    rax,rdx
  401baf:	48 f7 ea             	imul   rdx
  401bb2:	48 85 c6             	test   rsi,rax
  401bb5:	48 ff ce             	dec    rsi
  401bb8:	51                   	push   rcx
  401bb9:	48 c7 c0 6c 00 00 00 	mov    rax,0x6c
  401bc0:	0f 05                	syscall 
  401bc2:	59                   	pop    rcx
  401bc3:	48 09 fa             	or     rdx,rdi
  401bc6:	48 f7 e6             	mul    rsi
  401bc9:	48 01 c3             	add    rbx,rax
  401bcc:	48 f7 e0             	mul    rax
  401bcf:	48 ff ca             	dec    rdx
  401bd2:	cc                   	int3   
  401bd3:	90                   	nop
  401bd4:	f8                   	clc    
  401bd5:	fc                   	cld    
  401bd6:	48 ff c0             	inc    rax
  401bd9:	f8                   	clc    
  401bda:	48 01 c6             	add    rsi,rax
  401bdd:	48 ff c2             	inc    rdx
  401be0:	f9                   	stc    
  401be1:	48 09 fa             	or     rdx,rdi
  401be4:	c6 04 25 a4 71 62 00 	mov    BYTE PTR ds:0x6271a4,0x4e
  401beb:	4e 
  401bec:	48 87 f2             	xchg   rdx,rsi
  401bef:	48 ff c8             	dec    rax
  401bf2:	48 f7 e2             	mul    rdx
  401bf5:	48 f7 eb             	imul   rbx
  401bf8:	48 01 de             	add    rsi,rbx
  401bfb:	f8                   	clc    
  401bfc:	48 01 de             	add    rsi,rbx
  401bff:	48 ff c0             	inc    rax
  401c02:	48 f7 ea             	imul   rdx
  401c05:	48 85 d8             	test   rax,rbx
  401c08:	fd                   	std    
  401c09:	48 21 fa             	and    rdx,rdi
  401c0c:	48 f7 e8             	imul   rax
  401c0f:	48 ff ce             	dec    rsi
  401c12:	48 09 f6             	or     rsi,rsi
  401c15:	cc                   	int3   
  401c16:	51                   	push   rcx
  401c17:	48 c7 c0 6e 00 00 00 	mov    rax,0x6e
  401c1e:	0f 05                	syscall 
  401c20:	59                   	pop    rcx
  401c21:	48 21 c3             	and    rbx,rax
  401c24:	48 f7 ea             	imul   rdx
  401c27:	48 ff cf             	dec    rdi
  401c2a:	fd                   	std    
  401c2b:	48 21 fb             	and    rbx,rdi
  401c2e:	cc                   	int3   
  401c2f:	09 fb                	or     ebx,edi
  401c31:	48 89 df             	mov    rdi,rbx
  401c34:	48 f7 ef             	imul   rdi
  401c37:	48 f7 d8             	neg    rax
  401c3a:	cc                   	int3   
  401c3b:	f7 d8                	neg    eax
  401c3d:	48 f7 e3             	mul    rbx
  401c40:	cc                   	int3   
  401c41:	04 25                	add    al,0x25
  401c43:	e4 71                	in     al,0x71
  401c45:	62                   	(bad)  
  401c46:	00 5f c6             	add    BYTE PTR [rdi-0x3a],bl
  401c49:	04 25                	add    al,0x25
  401c4b:	b6 71                	mov    dh,0x71
  401c4d:	62                   	(bad)  
  401c4e:	00 72 48             	add    BYTE PTR [rdx+0x48],dh
  401c51:	89 d3                	mov    ebx,edx
  401c53:	cc                   	int3   
  401c54:	87 f6                	xchg   esi,esi
  401c56:	90                   	nop
  401c57:	48 21 d8             	and    rax,rbx
  401c5a:	fd                   	std    
  401c5b:	48 ff c3             	inc    rbx
  401c5e:	f9                   	stc    
  401c5f:	fd                   	std    
  401c60:	48 f7 da             	neg    rdx
  401c63:	f9                   	stc    
  401c64:	fd                   	std    
  401c65:	cc                   	int3   
  401c66:	ff cf                	dec    edi
  401c68:	51                   	push   rcx
  401c69:	cc                   	int3   
  401c6a:	c7 c0 68 00 00 00    	mov    eax,0x68
  401c70:	0f 05                	syscall 
  401c72:	59                   	pop    rcx
  401c73:	48 31 d2             	xor    rdx,rdx
  401c76:	cc                   	int3   
  401c77:	97                   	xchg   edi,eax
  401c78:	fc                   	cld    
  401c79:	f9                   	stc    
  401c7a:	cc                   	int3   
  401c7b:	48 c7 c0 18 00 00 00 	mov    rax,0x18
  401c82:	0f 05                	syscall 
  401c84:	59                   	pop    rcx
  401c85:	f8                   	clc    
  401c86:	48 f7 de             	neg    rsi
  401c89:	48 29 ff             	sub    rdi,rdi
  401c8c:	48 85 f8             	test   rax,rdi
  401c8f:	48 ff c6             	inc    rsi
  401c92:	f8                   	clc    
  401c93:	48 09 c0             	or     rax,rax
  401c96:	fd                   	std    
  401c97:	48 f7 de             	neg    rsi
  401c9a:	48 89 d3             	mov    rbx,rdx
  401c9d:	48 ff c8             	dec    rax
  401ca0:	48 29 fa             	sub    rdx,rdi
  401ca3:	48 ff c3             	inc    rbx
  401ca6:	fd                   	std    
  401ca7:	90                   	nop
  401ca8:	48 39 f8             	cmp    rax,rdi
  401cab:	90                   	nop
  401cac:	90                   	nop
  401cad:	48 ff c3             	inc    rbx
  401cb0:	51                   	push   rcx
  401cb1:	48 c7 c0 6e 00 00 00 	mov    rax,0x6e
  401cb8:	0f 05                	syscall 
  401cba:	59                   	pop    rcx
  401cbb:	48 89 de             	mov    rsi,rbx
  401cbe:	cc                   	int3   
  401cbf:	29 f0                	sub    eax,esi
  401cc1:	48 ff cb             	dec    rbx
  401cc4:	48 ff c8             	dec    rax
  401cc7:	cc                   	int3   
  401cc8:	85 f2                	test   edx,esi
  401cca:	48 92                	xchg   rdx,rax
  401ccc:	48 31 fb             	xor    rbx,rdi
  401ccf:	fc                   	cld    
  401cd0:	48 f7 d8             	neg    rax
  401cd3:	48 39 f0             	cmp    rax,rsi
  401cd6:	48 ff cb             	dec    rbx
  401cd9:	cc                   	int3   
  401cda:	51                   	push   rcx
  401cdb:	48 c7 c0 68 00 00 00 	mov    rax,0x68
  401ce2:	0f 05                	syscall 
  401ce4:	59                   	pop    rcx
  401ce5:	90                   	nop
  401ce6:	51                   	push   rcx
  401ce7:	48 c7 c0 66 00 00 00 	mov    rax,0x66
  401cee:	0f 05                	syscall 
  401cf0:	59                   	pop    rcx
  401cf1:	c6 04 25 93 71 62 00 	mov    BYTE PTR ds:0x627193,0xd6
  401cf8:	d6 
  401cf9:	fd                   	std    
  401cfa:	90                   	nop
  401cfb:	fd                   	std    
  401cfc:	48 21 f0             	and    rax,rsi
  401cff:	48 ff cb             	dec    rbx
  401d02:	48 f7 eb             	imul   rbx
  401d05:	90                   	nop
  401d06:	90                   	nop
  401d07:	cc                   	int3   
  401d08:	85 f2                	test   edx,esi
  401d0a:	48 f7 de             	neg    rsi
  401d0d:	48 89 d3             	mov    rbx,rdx
  401d10:	51                   	push   rcx
  401d11:	cc                   	int3   
  401d12:	c7 c0 66 00 00 00    	mov    eax,0x66
  401d18:	0f 05                	syscall 
  401d1a:	59                   	pop    rcx
  401d1b:	48 89 c6             	mov    rsi,rax
  401d1e:	48 87 d2             	xchg   rdx,rdx
  401d21:	48 29 f6             	sub    rsi,rsi
  401d24:	f8                   	clc    
  401d25:	48 f7 e3             	mul    rbx
  401d28:	90                   	nop
  401d29:	48 ff ce             	dec    rsi
  401d2c:	48 29 db             	sub    rbx,rbx
  401d2f:	48 09 fa             	or     rdx,rdi
  401d32:	f9                   	stc    
  401d33:	48 f7 e7             	mul    rdi
  401d36:	90                   	nop
  401d37:	48 09 d6             	or     rsi,rdx
  401d3a:	48 87 ff             	xchg   rdi,rdi
  401d3d:	48 ff c6             	inc    rsi
  401d40:	48 21 f8             	and    rax,rdi
  401d43:	fc                   	cld    
  401d44:	51                   	push   rcx
  401d45:	48 c7 c0 66 00 00 00 	mov    rax,0x66
  401d4c:	0f 05                	syscall 
  401d4e:	59                   	pop    rcx
  401d4f:	90                   	nop
  401d50:	48 85 d0             	test   rax,rdx
  401d53:	cc                   	int3   
  401d54:	ff c7                	inc    edi
  401d56:	fc                   	cld    
  401d57:	48 09 fb             	or     rbx,rdi
  401d5a:	48 31 f7             	xor    rdi,rsi
  401d5d:	48 ff c6             	inc    rsi
  401d60:	51                   	push   rcx
  401d61:	48 c7 c0 27 00 00 00 	mov    rax,0x27
  401d68:	0f 05                	syscall 
  401d6a:	59                   	pop    rcx
  401d6b:	48 f7 d8             	neg    rax
  401d6e:	48 96                	xchg   rsi,rax
  401d70:	fc                   	cld    
  401d71:	f9                   	stc    
  401d72:	c6 04 25 ca 71 62 00 	mov    BYTE PTR ds:0x6271ca,0xa7
  401d79:	a7 
  401d7a:	fd                   	std    
  401d7b:	48 ff cf             	dec    rdi
  401d7e:	48 01 da             	add    rdx,rbx
  401d81:	48 f7 ee             	imul   rsi
  401d84:	48 f7 e7             	mul    rdi
  401d87:	f9                   	stc    
  401d88:	48 ff cb             	dec    rbx
  401d8b:	51                   	push   rcx
  401d8c:	48 c7 c0 6c 00 00 00 	mov    rax,0x6c
  401d93:	0f 05                	syscall 
  401d95:	cc                   	int3   
  401d96:	90                   	nop
  401d97:	48 89 d0             	mov    rax,rdx
  401d9a:	90                   	nop
  401d9b:	48 39 f8             	cmp    rax,rdi
  401d9e:	48 f7 e8             	imul   rax
  401da1:	f8                   	clc    
  401da2:	fc                   	cld    
  401da3:	48 21 f7             	and    rdi,rsi
  401da6:	c6 04 25 b6 71 62 00 	mov    BYTE PTR ds:0x6271b6,0xdd
  401dad:	dd 
  401dae:	f9                   	stc    
  401daf:	48 09 f0             	or     rax,rsi
  401db2:	48 21 d7             	and    rdi,rdx
  401db5:	48 f7 de             	neg    rsi
  401db8:	cc                   	int3   
  401db9:	31 fe                	xor    esi,edi
  401dbb:	fc                   	cld    
  401dbc:	fc                   	cld    
  401dbd:	c6 04 25 c3 71 62 00 	mov    BYTE PTR ds:0x6271c3,0x43
  401dc4:	43 
  401dc5:	48 89 c0             	mov    rax,rax
  401dc8:	48 f7 e2             	mul    rdx
  401dcb:	48 31 c3             	xor    rbx,rax
  401dce:	51                   	push   rcx
  401dcf:	48 c7 c0 27 00 00 00 	mov    rax,0x27
  401dd6:	0f 05                	syscall 
  401dd8:	59                   	pop    rcx
  401dd9:	48 39 d0             	cmp    rax,rdx
  401ddc:	48 29 df             	sub    rdi,rbx
  401ddf:	48 31 c0             	xor    rax,rax
  401de2:	48 f7 e7             	mul    rdi
  401de5:	48 f7 e2             	mul    rdx
  401de8:	cc                   	int3   
  401de9:	29 d6                	sub    esi,edx
  401deb:	48 21 da             	and    rdx,rbx
  401dee:	48 89 c7             	mov    rdi,rax
  401df1:	48 29 d3             	sub    rbx,rdx
  401df4:	48 ff c0             	inc    rax
  401df7:	48 f7 e7             	mul    rdi
  401dfa:	c6 04 25 96 71 62 00 	mov    BYTE PTR ds:0x627196,0x3c
  401e01:	3c 
  401e02:	cc                   	int3   
  401e03:	04 25                	add    al,0x25
  401e05:	b9 71 62 00 c4       	mov    ecx,0xc4006271
  401e0a:	c6 04 25 cb 71 62 00 	mov    BYTE PTR ds:0x6271cb,0xc9
  401e11:	c9 
  401e12:	51                   	push   rcx
  401e13:	48 c7 c0 6f 00 00 00 	mov    rax,0x6f
  401e1a:	0f 05                	syscall 
  401e1c:	59                   	pop    rcx
  401e1d:	48 ff c2             	inc    rdx
  401e20:	48 f7 d8             	neg    rax
  401e23:	fd                   	std    
  401e24:	fc                   	cld    
  401e25:	48 ff c6             	inc    rsi
  401e28:	fc                   	cld    
  401e29:	f9                   	stc    
  401e2a:	f9                   	stc    
  401e2b:	48 89 d7             	mov    rdi,rdx
  401e2e:	fd                   	std    
  401e2f:	48 ff ca             	dec    rdx
  401e32:	48 f7 d8             	neg    rax
  401e35:	f8                   	clc    
  401e36:	48 87 de             	xchg   rsi,rbx
  401e39:	48 01 ff             	add    rdi,rdi
  401e3c:	48 39 f7             	cmp    rdi,rsi
  401e3f:	48 89 c7             	mov    rdi,rax
  401e42:	48 ff ca             	dec    rdx
  401e45:	48 ff ce             	dec    rsi
  401e48:	f9                   	stc    
  401e49:	90                   	nop
  401e4a:	48 87 f6             	xchg   rsi,rsi
  401e4d:	c6 04 25 96 71 62 00 	mov    BYTE PTR ds:0x627196,0x8e
  401e54:	8e 
  401e55:	51                   	push   rcx
  401e56:	48 c7 c0 18 00 00 00 	mov    rax,0x18
  401e5d:	0f 05                	syscall 
  401e5f:	59                   	pop    rcx
  401e60:	90                   	nop
  401e61:	90                   	nop
  401e62:	48 97                	xchg   rdi,rax
  401e64:	fd                   	std    
  401e65:	f9                   	stc    
  401e66:	90                   	nop
  401e67:	c6 04 25 9c 71 62 00 	mov    BYTE PTR ds:0x62719c,0x0
  401e6e:	00 
  401e6f:	c6 04 25 9e 71 62 00 	mov    BYTE PTR ds:0x62719e,0x9e
  401e76:	9e 
  401e77:	f8                   	clc    
  401e78:	48 ff cf             	dec    rdi
  401e7b:	f9                   	stc    
  401e7c:	48 ff c3             	inc    rbx
  401e7f:	48 31 d3             	xor    rbx,rdx
  401e82:	48 ff c0             	inc    rax
  401e85:	48 f7 da             	neg    rdx
  401e88:	f9                   	stc    
  401e89:	48 ff c2             	inc    rdx
  401e8c:	90                   	nop
  401e8d:	f9                   	stc    
  401e8e:	f9                   	stc    
  401e8f:	f9                   	stc    
  401e90:	51                   	push   rcx
  401e91:	48 c7 c0 6e 00 00 00 	mov    rax,0x6e
  401e98:	0f 05                	syscall 
  401e9a:	59                   	pop    rcx
  401e9b:	48 f7 e7             	mul    rdi
  401e9e:	fc                   	cld    
  401e9f:	48 89 c7             	mov    rdi,rax
  401ea2:	48 85 d3             	test   rbx,rdx
  401ea5:	90                   	nop
  401ea6:	48 ff c0             	inc    rax
  401ea9:	48 39 fb             	cmp    rbx,rdi
  401eac:	fd                   	std    
  401ead:	f8                   	clc    
  401eae:	f8                   	clc    
  401eaf:	48 f7 e7             	mul    rdi
  401eb2:	48 f7 de             	neg    rsi
  401eb5:	fd                   	std    
  401eb6:	fd                   	std    
  401eb7:	48 39 f8             	cmp    rax,rdi
  401eba:	cc                   	int3   
  401ebb:	87 f2                	xchg   edx,esi
  401ebd:	48 21 c0             	and    rax,rax
  401ec0:	51                   	push   rcx
  401ec1:	48 c7 c0 27 00 00 00 	mov    rax,0x27
  401ec8:	0f 05                	syscall 
  401eca:	59                   	pop    rcx
  401ecb:	48 29 fa             	sub    rdx,rdi
  401ece:	f9                   	stc    
  401ecf:	f9                   	stc    
  401ed0:	48 89 d2             	mov    rdx,rdx
  401ed3:	90                   	nop
  401ed4:	f9                   	stc    
  401ed5:	48 f7 e2             	mul    rdx
  401ed8:	90                   	nop
  401ed9:	48 31 f7             	xor    rdi,rsi
  401edc:	90                   	nop
  401edd:	48 f7 ef             	imul   rdi
  401ee0:	48 ff ce             	dec    rsi
  401ee3:	48 85 d6             	test   rsi,rdx
  401ee6:	cc                   	int3   
  401ee7:	f7 df                	neg    edi
  401ee9:	48 21 f6             	and    rsi,rsi
  401eec:	48 21 f8             	and    rax,rdi
  401eef:	48 97                	xchg   rdi,rax
  401ef1:	51                   	push   rcx
  401ef2:	48 c7 c0 6e 00 00 00 	mov    rax,0x6e
  401ef9:	0f 05                	syscall 
  401efb:	59                   	pop    rcx
  401efc:	48 31 d7             	xor    rdi,rdx
  401eff:	fc                   	cld    
  401f00:	51                   	push   rcx
  401f01:	48 c7 c0 6b 00 00 00 	mov    rax,0x6b
  401f08:	0f 05                	syscall 
  401f0a:	59                   	pop    rcx
  401f0b:	48 ff c2             	inc    rdx
  401f0e:	fc                   	cld    
  401f0f:	48 ff c8             	dec    rax
  401f12:	48 29 c0             	sub    rax,rax
  401f15:	f8                   	clc    
  401f16:	48 f7 de             	neg    rsi
  401f19:	cc                   	int3   
  401f1a:	48 f7 eb             	imul   rbx
  401f1d:	cc                   	int3   
  401f1e:	48 01 da             	add    rdx,rbx
  401f21:	c6 04 25 9b 71 62 00 	mov    BYTE PTR ds:0x62719b,0xfb
  401f28:	fb 
  401f29:	c6 04 25 a8 71 62 00 	mov    BYTE PTR ds:0x6271a8,0x75
  401f30:	75 
  401f31:	c6 04 25 a4 71 62 00 	mov    BYTE PTR ds:0x6271a4,0x38
  401f38:	38 
  401f39:	48 ff c3             	inc    rbx
  401f3c:	f9                   	stc    
  401f3d:	48 ff c0             	inc    rax
  401f40:	f8                   	clc    
  401f41:	48 39 d0             	cmp    rax,rdx
  401f44:	f9                   	stc    
  401f45:	90                   	nop
  401f46:	fd                   	std    
  401f47:	fc                   	cld    
  401f48:	f8                   	clc    
  401f49:	48 01 c6             	add    rsi,rax
  401f4c:	48 85 c3             	test   rbx,rax
  401f4f:	f9                   	stc    
  401f50:	48 f7 ee             	imul   rsi
  401f53:	cc                   	int3   
  401f54:	f7 de                	neg    esi
  401f56:	48 f7 ee             	imul   rsi
  401f59:	48 29 d0             	sub    rax,rdx
  401f5c:	51                   	push   rcx
  401f5d:	48 c7 c0 6f 00 00 00 	mov    rax,0x6f
  401f64:	0f 05                	syscall 
  401f66:	59                   	pop    rcx
  401f67:	48 39 f3             	cmp    rbx,rsi
  401f6a:	c6 04 25 e5 71 62 00 	mov    BYTE PTR ds:0x6271e5,0x74
  401f71:	74 
  401f72:	48 f7 de             	neg    rsi
  401f75:	48 21 ff             	and    rdi,rdi
  401f78:	fc                   	cld    
  401f79:	f9                   	stc    
  401f7a:	f9                   	stc    
  401f7b:	48 f7 ea             	imul   rdx
  401f7e:	48 f7 e6             	mul    rsi
  401f81:	90                   	nop
  401f82:	48 ff ce             	dec    rsi
  401f85:	48 39 c6             	cmp    rsi,rax
  401f88:	fd                   	std    
  401f89:	48 ff cf             	dec    rdi
  401f8c:	48 89 f6             	mov    rsi,rsi
  401f8f:	48 89 c6             	mov    rsi,rax
  401f92:	48 39 f7             	cmp    rdi,rsi
  401f95:	48 09 f0             	or     rax,rsi
  401f98:	48 f7 ef             	imul   rdi
  401f9b:	48 01 ff             	add    rdi,rdi
  401f9e:	90                   	nop
  401f9f:	48 f7 e6             	mul    rsi
  401fa2:	48 f7 e7             	mul    rdi
  401fa5:	fc                   	cld    
  401fa6:	48 f7 e0             	mul    rax
  401fa9:	51                   	push   rcx
  401faa:	48 c7 c0 68 00 00 00 	mov    rax,0x68
  401fb1:	0f 05                	syscall 
  401fb3:	59                   	pop    rcx
  401fb4:	cc                   	int3   
  401fb5:	48 f7 eb             	imul   rbx
  401fb8:	48 31 c0             	xor    rax,rax
  401fbb:	48 ff c8             	dec    rax
  401fbe:	48 f7 da             	neg    rdx
  401fc1:	fc                   	cld    
  401fc2:	f9                   	stc    
  401fc3:	48 ff cb             	dec    rbx
  401fc6:	48 ff c2             	inc    rdx
  401fc9:	48 f7 ee             	imul   rsi
  401fcc:	fc                   	cld    
  401fcd:	48 f7 e6             	mul    rsi
  401fd0:	48 f7 eb             	imul   rbx
  401fd3:	51                   	push   rcx
  401fd4:	48 c7 c0 68 00 00 00 	mov    rax,0x68
  401fdb:	0f 05                	syscall 
  401fdd:	59                   	pop    rcx
  401fde:	f8                   	clc    
  401fdf:	48 f7 d8             	neg    rax
  401fe2:	cc                   	int3   
  401fe3:	48 ff ce             	dec    rsi
  401fe6:	90                   	nop
  401fe7:	48 f7 e6             	mul    rsi
  401fea:	48 f7 ef             	imul   rdi
  401fed:	c6 04 25 e6 71 62 00 	mov    BYTE PTR ds:0x6271e6,0x68
  401ff4:	68 
  401ff5:	cc                   	int3   
  401ff6:	93                   	xchg   ebx,eax
  401ff7:	fd                   	std    
  401ff8:	f8                   	clc    
  401ff9:	fc                   	cld    
  401ffa:	cc                   	int3   
  401ffb:	48 f7 e6             	mul    rsi
  401ffe:	48 ff c7             	inc    rdi
  402001:	fc                   	cld    
  402002:	48 f7 ee             	imul   rsi
  402005:	90                   	nop
  402006:	48 31 ff             	xor    rdi,rdi
  402009:	51                   	push   rcx
  40200a:	48 c7 c0 27 00 00 00 	mov    rax,0x27
  402011:	0f 05                	syscall 
  402013:	59                   	pop    rcx
  402014:	cc                   	int3   
  402015:	51                   	push   rcx
  402016:	48 c7 c0 6b 00 00 00 	mov    rax,0x6b
  40201d:	0f 05                	syscall 
  40201f:	59                   	pop    rcx
  402020:	48 01 c7             	add    rdi,rax
  402023:	48 f7 e7             	mul    rdi
  402026:	fc                   	cld    
  402027:	48 ff c8             	dec    rax
  40202a:	cc                   	int3   
  40202b:	51                   	push   rcx
  40202c:	48 c7 c0 27 00 00 00 	mov    rax,0x27
  402033:	0f 05                	syscall 
  402035:	59                   	pop    rcx
  402036:	90                   	nop
  402037:	48 87 de             	xchg   rsi,rbx
  40203a:	48 01 fb             	add    rbx,rdi
  40203d:	48 29 f2             	sub    rdx,rsi
  402040:	fd                   	std    
  402041:	51                   	push   rcx
  402042:	cc                   	int3   
  402043:	c7 c0 6c 00 00 00    	mov    eax,0x6c
  402049:	0f 05                	syscall 
  40204b:	59                   	pop    rcx
  40204c:	f8                   	clc    
  40204d:	48 89 c3             	mov    rbx,rax
  402050:	90                   	nop
  402051:	48 f7 ea             	imul   rdx
  402054:	51                   	push   rcx
  402055:	48 c7 c0 6f 00 00 00 	mov    rax,0x6f
  40205c:	0f 05                	syscall 
  40205e:	59                   	pop    rcx
  40205f:	fd                   	std    
  402060:	48 21 f8             	and    rax,rdi
  402063:	cc                   	int3   
  402064:	ff c3                	inc    ebx
  402066:	48 f7 e6             	mul    rsi
  402069:	48 f7 ea             	imul   rdx
  40206c:	fd                   	std    
  40206d:	fc                   	cld    
  40206e:	cc                   	int3   
  40206f:	f7 e8                	imul   eax
  402071:	f9                   	stc    
  402072:	fc                   	cld    
  402073:	48 85 c7             	test   rdi,rax
  402076:	48 ff c2             	inc    rdx
  402079:	48 f7 da             	neg    rdx
  40207c:	f8                   	clc    
  40207d:	fc                   	cld    
  40207e:	fd                   	std    
  40207f:	48 39 f6             	cmp    rsi,rsi
  402082:	90                   	nop
  402083:	90                   	nop
  402084:	fd                   	std    
  402085:	fc                   	cld    
  402086:	48 ff c6             	inc    rsi
  402089:	48 f7 db             	neg    rbx
  40208c:	48 29 d8             	sub    rax,rbx
  40208f:	f9                   	stc    
  402090:	48 21 f2             	and    rdx,rsi
  402093:	90                   	nop
  402094:	48 31 de             	xor    rsi,rbx
  402097:	48 f7 e3             	mul    rbx
  40209a:	48 ff c0             	inc    rax
  40209d:	cc                   	int3   
  40209e:	48 89 fe             	mov    rsi,rdi
  4020a1:	48 f7 ef             	imul   rdi
  4020a4:	48 29 fe             	sub    rsi,rdi
  4020a7:	90                   	nop
  4020a8:	48 ff c6             	inc    rsi
  4020ab:	f9                   	stc    
  4020ac:	cc                   	int3   
  4020ad:	01 fa                	add    edx,edi
  4020af:	48 f7 e7             	mul    rdi
  4020b2:	cc                   	int3   
  4020b3:	f7 ef                	imul   edi
  4020b5:	48 f7 ee             	imul   rsi
  4020b8:	48 89 d6             	mov    rsi,rdx
  4020bb:	48 f7 e8             	imul   rax
  4020be:	fc                   	cld    
  4020bf:	48 ff cb             	dec    rbx
  4020c2:	cc                   	int3   
  4020c3:	ff c7                	inc    edi
  4020c5:	fc                   	cld    
  4020c6:	48 f7 e7             	mul    rdi
  4020c9:	48 85 d7             	test   rdi,rdx
  4020cc:	f9                   	stc    
  4020cd:	48 f7 e6             	mul    rsi
  4020d0:	48 ff c6             	inc    rsi
  4020d3:	48 39 f8             	cmp    rax,rdi
  4020d6:	48 85 fa             	test   rdx,rdi
  4020d9:	cc                   	int3   
  4020da:	48 89 d8             	mov    rax,rbx
  4020dd:	fd                   	std    
  4020de:	48 85 f3             	test   rbx,rsi
  4020e1:	48 ff c6             	inc    rsi
  4020e4:	48 31 d3             	xor    rbx,rdx
  4020e7:	48 29 f3             	sub    rbx,rsi
  4020ea:	48 87 fb             	xchg   rbx,rdi
  4020ed:	f9                   	stc    
  4020ee:	48 ff c2             	inc    rdx
  4020f1:	48 85 c2             	test   rdx,rax
  4020f4:	48 ff c7             	inc    rdi
  4020f7:	48 ff c8             	dec    rax
  4020fa:	48 ff c3             	inc    rbx
  4020fd:	48 09 f0             	or     rax,rsi
  402100:	48 29 d6             	sub    rsi,rdx
  402103:	48 01 d8             	add    rax,rbx
  402106:	48 f7 e2             	mul    rdx
  402109:	48 87 d7             	xchg   rdi,rdx
  40210c:	48 f7 e3             	mul    rbx
  40210f:	c6 04 25 b9 71 62 00 	mov    BYTE PTR ds:0x6271b9,0x3b
  402116:	3b 
  402117:	fd                   	std    
  402118:	48 f7 e3             	mul    rbx
  40211b:	48 21 f7             	and    rdi,rsi
  40211e:	fd                   	std    
  40211f:	48 f7 e6             	mul    rsi
  402122:	48 ff cf             	dec    rdi
  402125:	cc                   	int3   
  402126:	ff c8                	dec    eax
  402128:	48 ff c2             	inc    rdx
  40212b:	51                   	push   rcx
  40212c:	48 c7 c0 6e 00 00 00 	mov    rax,0x6e
  402133:	0f 05                	syscall 
  402135:	cc                   	int3   
  402136:	48 f7 e7             	mul    rdi
  402139:	48 ff cb             	dec    rbx
  40213c:	48 01 f3             	add    rbx,rsi
  40213f:	c6 04 25 b9 71 62 00 	mov    BYTE PTR ds:0x6271b9,0x41
  402146:	41 
  402147:	48 f7 db             	neg    rbx
  40214a:	f8                   	clc    
  40214b:	48 ff ce             	dec    rsi
  40214e:	48 ff cf             	dec    rdi
  402151:	48 f7 eb             	imul   rbx
  402154:	51                   	push   rcx
  402155:	48 c7 c0 27 00 00 00 	mov    rax,0x27
  40215c:	cc                   	int3   
  40215d:	05 59 f8 48 ff       	add    eax,0xff48f859
  402162:	c3                   	ret    
  402163:	48 85 fb             	test   rbx,rdi
  402166:	48 f7 da             	neg    rdx
  402169:	cc                   	int3   
  40216a:	48 09 c7             	or     rdi,rax
  40216d:	48 ff cb             	dec    rbx
  402170:	48 ff ca             	dec    rdx
  402173:	48 09 fa             	or     rdx,rdi
  402176:	48 31 d6             	xor    rsi,rdx
  402179:	fc                   	cld    
  40217a:	cc                   	int3   
  40217b:	09 de                	or     esi,ebx
  40217d:	48 f7 e0             	mul    rax
  402180:	48 31 c3             	xor    rbx,rax
  402183:	48 85 f3             	test   rbx,rsi
  402186:	48 89 c2             	mov    rdx,rax
  402189:	cc                   	int3   
  40218a:	f7 e3                	mul    ebx
  40218c:	48 85 fa             	test   rdx,rdi
  40218f:	48 f7 e8             	imul   rax
  402192:	90                   	nop
  402193:	90                   	nop
  402194:	f9                   	stc    
  402195:	48 f7 e3             	mul    rbx
  402198:	48 39 fe             	cmp    rsi,rdi
  40219b:	48 85 c0             	test   rax,rax
  40219e:	48 21 f0             	and    rax,rsi
  4021a1:	48 f7 ea             	imul   rdx
  4021a4:	48 01 f3             	add    rbx,rsi
  4021a7:	51                   	push   rcx
  4021a8:	48 c7 c0 68 00 00 00 	mov    rax,0x68
  4021af:	0f 05                	syscall 
  4021b1:	59                   	pop    rcx
  4021b2:	48 29 c7             	sub    rdi,rax
  4021b5:	c6 04 25 91 71 62 00 	mov    BYTE PTR ds:0x627191,0x34
  4021bc:	34 
  4021bd:	f9                   	stc    
  4021be:	f8                   	clc    
  4021bf:	51                   	push   rcx
  4021c0:	48 c7 c0 6e 00 00 00 	mov    rax,0x6e
  4021c7:	0f 05                	syscall 
  4021c9:	59                   	pop    rcx
  4021ca:	48 31 f6             	xor    rsi,rsi
  4021cd:	48 f7 e6             	mul    rsi
  4021d0:	fc                   	cld    
  4021d1:	48 09 de             	or     rsi,rbx
  4021d4:	51                   	push   rcx
  4021d5:	48 c7 c0 6f 00 00 00 	mov    rax,0x6f
  4021dc:	0f 05                	syscall 
  4021de:	59                   	pop    rcx
  4021df:	fd                   	std    
  4021e0:	48 f7 da             	neg    rdx
  4021e3:	48 39 da             	cmp    rdx,rbx
  4021e6:	48 29 c0             	sub    rax,rax
  4021e9:	90                   	nop
  4021ea:	48 29 c0             	sub    rax,rax
  4021ed:	48 85 c7             	test   rdi,rax
  4021f0:	48 ff c2             	inc    rdx
  4021f3:	48 29 c3             	sub    rbx,rax
  4021f6:	fd                   	std    
  4021f7:	cc                   	int3   
  4021f8:	48 ff c2             	inc    rdx
  4021fb:	48 f7 ee             	imul   rsi
  4021fe:	fd                   	std    
  4021ff:	51                   	push   rcx
  402200:	48 c7 c0 6e 00 00 00 	mov    rax,0x6e
  402207:	0f 05                	syscall 
  402209:	59                   	pop    rcx
  40220a:	48 ff c7             	inc    rdi
  40220d:	48 f7 e0             	mul    rax
  402210:	48 01 f2             	add    rdx,rsi
  402213:	c6 04 25 e7 71 62 00 	mov    BYTE PTR ds:0x6271e7,0x65
  40221a:	65 
  40221b:	48 89 fe             	mov    rsi,rdi
  40221e:	f8                   	clc    
  40221f:	90                   	nop
  402220:	51                   	push   rcx
  402221:	48 c7 c0 68 00 00 00 	mov    rax,0x68
  402228:	0f 05                	syscall 
  40222a:	59                   	pop    rcx
  40222b:	48 f7 e6             	mul    rsi
  40222e:	fd                   	std    
  40222f:	48 ff c8             	dec    rax
  402232:	cc                   	int3   
  402233:	90                   	nop
  402234:	fd                   	std    
  402235:	fd                   	std    
  402236:	48 f7 da             	neg    rdx
  402239:	51                   	push   rcx
  40223a:	48 c7 c0 6b 00 00 00 	mov    rax,0x6b
  402241:	0f 05                	syscall 
  402243:	59                   	pop    rcx
  402244:	48 39 c6             	cmp    rsi,rax
  402247:	48 ff c2             	inc    rdx
  40224a:	f9                   	stc    
  40224b:	48 01 f3             	add    rbx,rsi
  40224e:	f9                   	stc    
  40224f:	48 f7 ea             	imul   rdx
  402252:	cc                   	int3   
  402253:	09 f3                	or     ebx,esi
  402255:	48 ff ce             	dec    rsi
  402258:	48 f7 e8             	imul   rax
  40225b:	90                   	nop
  40225c:	48 39 c2             	cmp    rdx,rax
  40225f:	fc                   	cld    
  402260:	51                   	push   rcx
  402261:	48 c7 c0 6b 00 00 00 	mov    rax,0x6b
  402268:	0f 05                	syscall 
  40226a:	59                   	pop    rcx
  40226b:	48 01 d6             	add    rsi,rdx
  40226e:	fd                   	std    
  40226f:	48 29 fe             	sub    rsi,rdi
  402272:	48 31 d0             	xor    rax,rdx
  402275:	48 f7 de             	neg    rsi
  402278:	cc                   	int3   
  402279:	ff cb                	dec    ebx
  40227b:	48 ff ca             	dec    rdx
  40227e:	48 ff cb             	dec    rbx
  402281:	90                   	nop
  402282:	48 f7 ea             	imul   rdx
  402285:	cc                   	int3   
  402286:	48 31 d3             	xor    rbx,rdx
  402289:	48 01 d7             	add    rdi,rdx
  40228c:	48 39 c0             	cmp    rax,rax
  40228f:	48 29 f0             	sub    rax,rsi
  402292:	cc                   	int3   
  402293:	48 89 d6             	mov    rsi,rdx
  402296:	cc                   	int3   
  402297:	09 da                	or     edx,ebx
  402299:	cc                   	int3   
  40229a:	fd                   	std    
  40229b:	cc                   	int3   
  40229c:	f7 ef                	imul   edi
  40229e:	48 f7 df             	neg    rdi
  4022a1:	f8                   	clc    
  4022a2:	c6 04 25 b6 71 62 00 	mov    BYTE PTR ds:0x6271b6,0xbb
  4022a9:	bb 
  4022aa:	48 09 c7             	or     rdi,rax
  4022ad:	f8                   	clc    
  4022ae:	48 01 d8             	add    rax,rbx
  4022b1:	48 ff c7             	inc    rdi
  4022b4:	48 ff cb             	dec    rbx
  4022b7:	51                   	push   rcx
  4022b8:	48 c7 c0 66 00 00 00 	mov    rax,0x66
  4022bf:	0f 05                	syscall 
  4022c1:	59                   	pop    rcx
  4022c2:	90                   	nop
  4022c3:	48 09 de             	or     rsi,rbx
  4022c6:	f8                   	clc    
  4022c7:	cc                   	int3   
  4022c8:	f7 ef                	imul   edi
  4022ca:	48 f7 ea             	imul   rdx
  4022cd:	48 ff c8             	dec    rax
  4022d0:	48 09 c2             	or     rdx,rax
  4022d3:	48 f7 e0             	mul    rax
  4022d6:	48 85 c0             	test   rax,rax
  4022d9:	48 f7 e7             	mul    rdi
  4022dc:	f8                   	clc    
  4022dd:	48 ff c0             	inc    rax
  4022e0:	fc                   	cld    
  4022e1:	48 31 fb             	xor    rbx,rdi
  4022e4:	48 ff ce             	dec    rsi
  4022e7:	f8                   	clc    
  4022e8:	48 f7 ea             	imul   rdx
  4022eb:	48 21 df             	and    rdi,rbx
  4022ee:	48 f7 e8             	imul   rax
  4022f1:	f9                   	stc    
  4022f2:	c6 04 25 e8 71 62 00 	mov    BYTE PTR ds:0x6271e8,0x5f
  4022f9:	5f 
  4022fa:	fc                   	cld    
  4022fb:	48 ff cf             	dec    rdi
  4022fe:	f9                   	stc    
  4022ff:	51                   	push   rcx
  402300:	48 c7 c0 6b 00 00 00 	mov    rax,0x6b
  402307:	0f 05                	syscall 
  402309:	59                   	pop    rcx
  40230a:	48 85 df             	test   rdi,rbx
  40230d:	48 31 df             	xor    rdi,rbx
  402310:	48 ff cf             	dec    rdi
  402313:	f8                   	clc    
  402314:	48 ff cf             	dec    rdi
  402317:	fc                   	cld    
  402318:	51                   	push   rcx
  402319:	48 c7 c0 27 00 00 00 	mov    rax,0x27
  402320:	0f 05                	syscall 
  402322:	59                   	pop    rcx
  402323:	48 31 d2             	xor    rdx,rdx
  402326:	48 89 c2             	mov    rdx,rax
  402329:	48 85 da             	test   rdx,rbx
  40232c:	f9                   	stc    
  40232d:	48 85 c2             	test   rdx,rax
  402330:	48 21 c2             	and    rdx,rax
  402333:	f8                   	clc    
  402334:	f8                   	clc    
  402335:	48 31 fe             	xor    rsi,rdi
  402338:	cc                   	int3   
  402339:	fd                   	std    
  40233a:	48 39 ff             	cmp    rdi,rdi
  40233d:	48 87 fe             	xchg   rsi,rdi
  402340:	48 ff c7             	inc    rdi
  402343:	c6 04 25 e9 71 62 00 	mov    BYTE PTR ds:0x6271e9,0x30
  40234a:	30 
  40234b:	cc                   	int3   
  40234c:	cc                   	int3   
  40234d:	87 fe                	xchg   esi,edi
  40234f:	48 89 c2             	mov    rdx,rax
  402352:	48 ff c0             	inc    rax
  402355:	48 21 f7             	and    rdi,rsi
  402358:	90                   	nop
  402359:	51                   	push   rcx
  40235a:	48 c7 c0 6c 00 00 00 	mov    rax,0x6c
  402361:	0f 05                	syscall 
  402363:	59                   	pop    rcx
  402364:	cc                   	int3   
  402365:	f7 ee                	imul   esi
  402367:	90                   	nop
  402368:	48 f7 db             	neg    rbx
  40236b:	c6 04 25 a1 71 62 00 	mov    BYTE PTR ds:0x6271a1,0xea
  402372:	ea 
  402373:	c6 04 25 ea 71 62 00 	mov    BYTE PTR ds:0x6271ea,0x78
  40237a:	78 
  40237b:	90                   	nop
  40237c:	48 f7 e7             	mul    rdi
  40237f:	f9                   	stc    
  402380:	48 ff cb             	dec    rbx
  402383:	48 29 c7             	sub    rdi,rax
  402386:	f8                   	clc    
  402387:	48 39 c7             	cmp    rdi,rax
  40238a:	48 ff c6             	inc    rsi
  40238d:	48 f7 db             	neg    rbx
  402390:	c6 04 25 a5 71 62 00 	mov    BYTE PTR ds:0x6271a5,0x71
  402397:	71 
  402398:	48 f7 eb             	imul   rbx
  40239b:	48 f7 eb             	imul   rbx
  40239e:	48 29 da             	sub    rdx,rbx
  4023a1:	fd                   	std    
  4023a2:	51                   	push   rcx
  4023a3:	48 c7 c0 66 00 00 00 	mov    rax,0x66
  4023aa:	0f 05                	syscall 
  4023ac:	59                   	pop    rcx
  4023ad:	48 31 da             	xor    rdx,rbx
  4023b0:	f8                   	clc    
  4023b1:	48 f7 df             	neg    rdi
  4023b4:	f8                   	clc    
  4023b5:	f9                   	stc    
  4023b6:	cc                   	int3   
  4023b7:	cc                   	int3   
  4023b8:	01 fa                	add    edx,edi
  4023ba:	fc                   	cld    
  4023bb:	48 21 f7             	and    rdi,rsi
  4023be:	cc                   	int3   
  4023bf:	ff cf                	dec    edi
  4023c1:	48 f7 e8             	imul   rax
  4023c4:	48 85 d0             	test   rax,rdx
  4023c7:	fc                   	cld    
  4023c8:	48 ff c3             	inc    rbx
  4023cb:	fd                   	std    
  4023cc:	f9                   	stc    
  4023cd:	48 09 d8             	or     rax,rbx
  4023d0:	48 85 c7             	test   rdi,rax
  4023d3:	48 f7 ef             	imul   rdi
  4023d6:	48 85 d0             	test   rax,rdx
  4023d9:	f9                   	stc    
  4023da:	48 f7 e8             	imul   rax
  4023dd:	48 f7 da             	neg    rdx
  4023e0:	90                   	nop
  4023e1:	f8                   	clc    
  4023e2:	90                   	nop
  4023e3:	48 29 f6             	sub    rsi,rsi
  4023e6:	48 ff c7             	inc    rdi
  4023e9:	48 01 c7             	add    rdi,rax
  4023ec:	48 f7 e6             	mul    rsi
  4023ef:	51                   	push   rcx
  4023f0:	48 c7 c0 27 00 00 00 	mov    rax,0x27
  4023f7:	0f 05                	syscall 
  4023f9:	59                   	pop    rcx
  4023fa:	fc                   	cld    
  4023fb:	90                   	nop
  4023fc:	48 f7 e2             	mul    rdx
  4023ff:	48 f7 eb             	imul   rbx
  402402:	48 89 fe             	mov    rsi,rdi
  402405:	48 09 fa             	or     rdx,rdi
  402408:	c6 04 25 eb 71 62 00 	mov    BYTE PTR ds:0x6271eb,0x43
  40240f:	43 
  402410:	fd                   	std    
  402411:	48 87 d2             	xchg   rdx,rdx
  402414:	48 92                	xchg   rdx,rax
  402416:	48 01 de             	add    rsi,rbx
  402419:	48 21 f8             	and    rax,rdi
  40241c:	fd                   	std    
  40241d:	48 31 fe             	xor    rsi,rdi
  402420:	48 f7 db             	neg    rbx
  402423:	51                   	push   rcx
  402424:	48 c7 c0 18 00 00 00 	mov    rax,0x18
  40242b:	cc                   	int3   
  40242c:	05 59 cc ff c2       	add    eax,0xc2ffcc59
  402431:	cc                   	int3   
  402432:	ff c0                	inc    eax
  402434:	90                   	nop
  402435:	48 f7 da             	neg    rdx
  402438:	48 f7 e8             	imul   rax
  40243b:	48 f7 e3             	mul    rbx
  40243e:	fc                   	cld    
  40243f:	48 21 d6             	and    rsi,rdx
  402442:	48 ff c3             	inc    rbx
  402445:	48 93                	xchg   rbx,rax
  402447:	51                   	push   rcx
  402448:	cc                   	int3   
  402449:	c7 c0 6f 00 00 00    	mov    eax,0x6f
  40244f:	0f 05                	syscall 
  402451:	59                   	pop    rcx
  402452:	48 ff ca             	dec    rdx
  402455:	48 f7 d8             	neg    rax
  402458:	f9                   	stc    
  402459:	48 f7 ea             	imul   rdx
  40245c:	f8                   	clc    
  40245d:	48 29 fe             	sub    rsi,rdi
  402460:	48 f7 e7             	mul    rdi
  402463:	cc                   	int3   
  402464:	f8                   	clc    
  402465:	48 f7 db             	neg    rbx
  402468:	fc                   	cld    
  402469:	fc                   	cld    
  40246a:	48 ff ce             	dec    rsi
  40246d:	cc                   	int3   
  40246e:	48 ff cf             	dec    rdi
  402471:	48 f7 ea             	imul   rdx
  402474:	f8                   	clc    
  402475:	fd                   	std    
  402476:	48 f7 ea             	imul   rdx
  402479:	48 ff c6             	inc    rsi
  40247c:	c6 04 25 be 71 62 00 	mov    BYTE PTR ds:0x6271be,0x80
  402483:	80 
  402484:	fd                   	std    
  402485:	51                   	push   rcx
  402486:	48 c7 c0 6c 00 00 00 	mov    rax,0x6c
  40248d:	0f 05                	syscall 
  40248f:	59                   	pop    rcx
  402490:	cc                   	int3   
  402491:	48 f7 ea             	imul   rdx
  402494:	48 09 f2             	or     rdx,rsi
  402497:	f9                   	stc    
  402498:	f9                   	stc    
  402499:	48 31 d6             	xor    rsi,rdx
  40249c:	48 f7 e2             	mul    rdx
  40249f:	48 31 c7             	xor    rdi,rax
  4024a2:	f8                   	clc    
  4024a3:	48 39 fa             	cmp    rdx,rdi
  4024a6:	48 f7 e0             	mul    rax
  4024a9:	48 31 d0             	xor    rax,rdx
  4024ac:	c6 04 25 ec 71 62 00 	mov    BYTE PTR ds:0x6271ec,0x43
  4024b3:	43 
  4024b4:	fd                   	std    
  4024b5:	48 ff c7             	inc    rdi
  4024b8:	48 ff cb             	dec    rbx
  4024bb:	48 29 f3             	sub    rbx,rsi
  4024be:	f9                   	stc    
  4024bf:	fc                   	cld    
  4024c0:	48 89 f0             	mov    rax,rsi
  4024c3:	fd                   	std    
  4024c4:	f9                   	stc    
  4024c5:	48 39 fe             	cmp    rsi,rdi
  4024c8:	48 39 c2             	cmp    rdx,rax
  4024cb:	48 85 f0             	test   rax,rsi
  4024ce:	f9                   	stc    
  4024cf:	cc                   	int3   
  4024d0:	ff c7                	inc    edi
  4024d2:	48 39 f0             	cmp    rax,rsi
  4024d5:	48 31 da             	xor    rdx,rbx
  4024d8:	48 85 df             	test   rdi,rbx
  4024db:	51                   	push   rcx
  4024dc:	48 c7 c0 6c 00 00 00 	mov    rax,0x6c
  4024e3:	0f 05                	syscall 
  4024e5:	59                   	pop    rcx
  4024e6:	fd                   	std    
  4024e7:	48 31 ff             	xor    rdi,rdi
  4024ea:	51                   	push   rcx
  4024eb:	48 c7 c0 6b 00 00 00 	mov    rax,0x6b
  4024f2:	0f 05                	syscall 
  4024f4:	59                   	pop    rcx
  4024f5:	48 21 f7             	and    rdi,rsi
  4024f8:	f9                   	stc    
  4024f9:	48 f7 ea             	imul   rdx
  4024fc:	48 f7 ea             	imul   rdx
  4024ff:	48 89 fe             	mov    rsi,rdi
  402502:	48 ff c0             	inc    rax
  402505:	fc                   	cld    
  402506:	cc                   	int3   
  402507:	48 31 c0             	xor    rax,rax
  40250a:	cc                   	int3   
  40250b:	31 d7                	xor    edi,edx
  40250d:	cc                   	int3   
  40250e:	cc                   	int3   
  40250f:	c7 c0 6b 00 00 00    	mov    eax,0x6b
  402515:	0f 05                	syscall 
  402517:	59                   	pop    rcx
  402518:	90                   	nop
  402519:	f9                   	stc    
  40251a:	48 f7 de             	neg    rsi
  40251d:	48 f7 db             	neg    rbx
  402520:	48 f7 e0             	mul    rax
  402523:	fd                   	std    
  402524:	51                   	push   rcx
  402525:	48 c7 c0 68 00 00 00 	mov    rax,0x68
  40252c:	0f 05                	syscall 
  40252e:	59                   	pop    rcx
  40252f:	fc                   	cld    
  402530:	51                   	push   rcx
  402531:	48 c7 c0 6c 00 00 00 	mov    rax,0x6c
  402538:	cc                   	int3   
  402539:	05 59 48 87 f6       	add    eax,0xf6874859
  40253e:	48 ff cb             	dec    rbx
  402541:	f8                   	clc    
  402542:	48 f7 ee             	imul   rsi
  402545:	48 31 d0             	xor    rax,rdx
  402548:	c6 04 25 b0 71 62 00 	mov    BYTE PTR ds:0x6271b0,0x6
  40254f:	06 
  402550:	48 89 d2             	mov    rdx,rdx
  402553:	48 f7 da             	neg    rdx
  402556:	90                   	nop
  402557:	48 87 f7             	xchg   rdi,rsi
  40255a:	48 89 c7             	mov    rdi,rax
  40255d:	48 87 f2             	xchg   rdx,rsi
  402560:	f9                   	stc    
  402561:	cc                   	int3   
  402562:	48 c7 c0 66 00 00 00 	mov    rax,0x66
  402569:	0f 05                	syscall 
  40256b:	59                   	pop    rcx
  40256c:	48 85 d2             	test   rdx,rdx
  40256f:	48 89 f8             	mov    rax,rdi
  402572:	90                   	nop
  402573:	48 f7 e2             	mul    rdx
  402576:	48 85 f2             	test   rdx,rsi
  402579:	48 39 ff             	cmp    rdi,rdi
  40257c:	fd                   	std    
  40257d:	48 87 d3             	xchg   rbx,rdx
  402580:	48 f7 ee             	imul   rsi
  402583:	cc                   	int3   
  402584:	48 f7 d8             	neg    rax
  402587:	48 ff cb             	dec    rbx
  40258a:	48 01 c2             	add    rdx,rax
  40258d:	51                   	push   rcx
  40258e:	cc                   	int3   
  40258f:	c7 c0 27 00 00 00    	mov    eax,0x27
  402595:	0f 05                	syscall 
  402597:	59                   	pop    rcx
  402598:	48 ff cf             	dec    rdi
  40259b:	48 ff c2             	inc    rdx
  40259e:	48 29 da             	sub    rdx,rbx
  4025a1:	f9                   	stc    
  4025a2:	fc                   	cld    
  4025a3:	48 29 c0             	sub    rax,rax
  4025a6:	f9                   	stc    
  4025a7:	90                   	nop
  4025a8:	48 21 fb             	and    rbx,rdi
  4025ab:	c6 04 25 c3 71 62 00 	mov    BYTE PTR ds:0x6271c3,0x10
  4025b2:	10 
  4025b3:	fd                   	std    
  4025b4:	48 87 f3             	xchg   rbx,rsi
  4025b7:	48 ff cf             	dec    rdi
  4025ba:	fc                   	cld    
  4025bb:	48 ff c0             	inc    rax
  4025be:	48 09 fb             	or     rbx,rdi
  4025c1:	48 87 da             	xchg   rdx,rbx
  4025c4:	48 f7 ea             	imul   rdx
  4025c7:	48 96                	xchg   rsi,rax
  4025c9:	fd                   	std    
  4025ca:	48 ff c2             	inc    rdx
  4025cd:	48 ff cf             	dec    rdi
  4025d0:	cc                   	int3   
  4025d1:	31 f2                	xor    edx,esi
  4025d3:	f8                   	clc    
  4025d4:	48 f7 e0             	mul    rax
  4025d7:	f9                   	stc    
  4025d8:	48 89 df             	mov    rdi,rbx
  4025db:	48 09 c3             	or     rbx,rax
  4025de:	f8                   	clc    
  4025df:	48 f7 e8             	imul   rax
  4025e2:	48 ff c2             	inc    rdx
  4025e5:	48 ff ca             	dec    rdx
  4025e8:	48 f7 de             	neg    rsi
  4025eb:	48 39 c6             	cmp    rsi,rax
  4025ee:	f9                   	stc    
  4025ef:	cc                   	int3   
  4025f0:	48 31 da             	xor    rdx,rbx
  4025f3:	48 09 de             	or     rsi,rbx
  4025f6:	48 ff ca             	dec    rdx
  4025f9:	cc                   	int3   
  4025fa:	ff c7                	inc    edi
  4025fc:	48 09 d6             	or     rsi,rdx
  4025ff:	48 f7 e8             	imul   rax
  402602:	cc                   	int3   
  402603:	89 d0                	mov    eax,edx
  402605:	48 29 c0             	sub    rax,rax
  402608:	cc                   	int3   
  402609:	48 87 d7             	xchg   rdi,rdx
  40260c:	48 01 d0             	add    rax,rdx
  40260f:	48 f7 db             	neg    rbx
  402612:	fc                   	cld    
  402613:	f8                   	clc    
  402614:	51                   	push   rcx
  402615:	48 c7 c0 6e 00 00 00 	mov    rax,0x6e
  40261c:	0f 05                	syscall 
  40261e:	59                   	pop    rcx
  40261f:	48 ff c8             	dec    rax
  402622:	48 f7 db             	neg    rbx
  402625:	48 85 d2             	test   rdx,rdx
  402628:	48 f7 da             	neg    rdx
  40262b:	51                   	push   rcx
  40262c:	48 c7 c0 6f 00 00 00 	mov    rax,0x6f
  402633:	0f 05                	syscall 
  402635:	59                   	pop    rcx
  402636:	fc                   	cld    
  402637:	48 f7 df             	neg    rdi
  40263a:	f8                   	clc    
  40263b:	48 85 fa             	test   rdx,rdi
  40263e:	90                   	nop
  40263f:	fc                   	cld    
  402640:	f8                   	clc    
  402641:	fc                   	cld    
  402642:	48 21 f0             	and    rax,rsi
  402645:	48 85 c2             	test   rdx,rax
  402648:	48 ff c3             	inc    rbx
  40264b:	48 29 f2             	sub    rdx,rsi
  40264e:	48 29 da             	sub    rdx,rbx
  402651:	48 f7 e2             	mul    rdx
  402654:	f8                   	clc    
  402655:	48 ff cf             	dec    rdi
  402658:	fd                   	std    
  402659:	fc                   	cld    
  40265a:	48 01 f3             	add    rbx,rsi
  40265d:	48 29 d3             	sub    rbx,rdx
  402660:	48 85 db             	test   rbx,rbx
  402663:	48 f7 de             	neg    rsi
  402666:	48 01 da             	add    rdx,rbx
  402669:	c6 04 25 bf 71 62 00 	mov    BYTE PTR ds:0x6271bf,0xda
  402670:	da 
  402671:	48 85 d0             	test   rax,rdx
  402674:	48 92                	xchg   rdx,rax
  402676:	f9                   	stc    
  402677:	48 f7 e2             	mul    rdx
  40267a:	48 21 ff             	and    rdi,rdi
  40267d:	48 09 d7             	or     rdi,rdx
  402680:	cc                   	int3   
  402681:	ff cf                	dec    edi
  402683:	fc                   	cld    
  402684:	48 f7 e6             	mul    rsi
  402687:	f9                   	stc    
  402688:	90                   	nop
  402689:	48 f7 e7             	mul    rdi
  40268c:	cc                   	int3   
  40268d:	48 f7 db             	neg    rbx
  402690:	48 ff ca             	dec    rdx
  402693:	48 ff c3             	inc    rbx
  402696:	48 29 f7             	sub    rdi,rsi
  402699:	48 31 fb             	xor    rbx,rdi
  40269c:	90                   	nop
  40269d:	f8                   	clc    
  40269e:	fc                   	cld    
  40269f:	48 01 d6             	add    rsi,rdx
  4026a2:	48 21 c3             	and    rbx,rax
  4026a5:	fd                   	std    
  4026a6:	fd                   	std    
  4026a7:	90                   	nop
  4026a8:	48 01 df             	add    rdi,rbx
  4026ab:	cc                   	int3   
  4026ac:	ff ce                	dec    esi
  4026ae:	48 87 d3             	xchg   rbx,rdx
  4026b1:	48 f7 ee             	imul   rsi
  4026b4:	fd                   	std    
  4026b5:	f9                   	stc    
  4026b6:	48 f7 eb             	imul   rbx
  4026b9:	f9                   	stc    
  4026ba:	fd                   	std    
  4026bb:	48 29 d8             	sub    rax,rbx
  4026be:	fd                   	std    
  4026bf:	fd                   	std    
  4026c0:	48 f7 e7             	mul    rdi
  4026c3:	fc                   	cld    
  4026c4:	48 09 f3             	or     rbx,rsi
  4026c7:	f8                   	clc    
  4026c8:	48 f7 e2             	mul    rdx
  4026cb:	48 ff ca             	dec    rdx
  4026ce:	f8                   	clc    
  4026cf:	48 09 d7             	or     rdi,rdx
  4026d2:	c6 04 25 cd 71 62 00 	mov    BYTE PTR ds:0x6271cd,0x1d
  4026d9:	1d 
  4026da:	48 89 c0             	mov    rax,rax
  4026dd:	48 39 c7             	cmp    rdi,rax
  4026e0:	cc                   	int3   
  4026e1:	21 db                	and    ebx,ebx
  4026e3:	48 f7 e3             	mul    rbx
  4026e6:	c6 04 25 ed 71 62 00 	mov    BYTE PTR ds:0x6271ed,0x27
  4026ed:	27 
  4026ee:	fc                   	cld    
  4026ef:	48 01 f0             	add    rax,rsi
  4026f2:	90                   	nop
  4026f3:	fd                   	std    
  4026f4:	48 f7 eb             	imul   rbx
  4026f7:	f9                   	stc    
  4026f8:	48 ff c8             	dec    rax
  4026fb:	90                   	nop
  4026fc:	48 87 f3             	xchg   rbx,rsi
  4026ff:	f8                   	clc    
  402700:	48 ff ca             	dec    rdx
  402703:	48 f7 da             	neg    rdx
  402706:	48 09 fe             	or     rsi,rdi
  402709:	cc                   	int3   
  40270a:	f7 ee                	imul   esi
  40270c:	48 85 f2             	test   rdx,rsi
  40270f:	48 29 fa             	sub    rdx,rdi
  402712:	f8                   	clc    
  402713:	48 96                	xchg   rsi,rax
  402715:	fc                   	cld    
  402716:	48 89 fb             	mov    rbx,rdi
  402719:	c6 04 25 c8 71 62 00 	mov    BYTE PTR ds:0x6271c8,0xb4
  402720:	b4 
  402721:	48 ff c8             	dec    rax
  402724:	90                   	nop
  402725:	cc                   	int3   
  402726:	01 df                	add    edi,ebx
  402728:	48 ff c7             	inc    rdi
  40272b:	48 f7 df             	neg    rdi
  40272e:	cc                   	int3   
  40272f:	04 25                	add    al,0x25
  402731:	cc                   	int3   
  402732:	71 62                	jno    402796 <_start+0x26e6>
  402734:	00 d4                	add    ah,dl
  402736:	48 29 da             	sub    rdx,rbx
  402739:	48 31 da             	xor    rdx,rbx
  40273c:	90                   	nop
  40273d:	48 f7 e8             	imul   rax
  402740:	48 f7 df             	neg    rdi
  402743:	f9                   	stc    
  402744:	f9                   	stc    
  402745:	cc                   	int3   
  402746:	ff c6                	inc    esi
  402748:	48 09 c3             	or     rbx,rax
  40274b:	f8                   	clc    
  40274c:	f8                   	clc    
  40274d:	48 f7 ee             	imul   rsi
  402750:	48 f7 e7             	mul    rdi
  402753:	f8                   	clc    
  402754:	48 f7 e7             	mul    rdi
  402757:	48 89 db             	mov    rbx,rbx
  40275a:	48 f7 de             	neg    rsi
  40275d:	fd                   	std    
  40275e:	51                   	push   rcx
  40275f:	48 c7 c0 6c 00 00 00 	mov    rax,0x6c
  402766:	0f 05                	syscall 
  402768:	59                   	pop    rcx
  402769:	f8                   	clc    
  40276a:	f9                   	stc    
  40276b:	51                   	push   rcx
  40276c:	cc                   	int3   
  40276d:	c7 c0 6f 00 00 00    	mov    eax,0x6f
  402773:	0f 05                	syscall 
  402775:	59                   	pop    rcx
  402776:	c6 04 25 9b 71 62 00 	mov    BYTE PTR ds:0x62719b,0x82
  40277d:	82 
  40277e:	48 ff c7             	inc    rdi
  402781:	48 01 df             	add    rdi,rbx
  402784:	fc                   	cld    
  402785:	f9                   	stc    
  402786:	48 21 d7             	and    rdi,rdx
  402789:	fc                   	cld    
  40278a:	f9                   	stc    
  40278b:	cc                   	int3   
  40278c:	85 c0                	test   eax,eax
  40278e:	48 31 fa             	xor    rdx,rdi
  402791:	cc                   	int3   
  402792:	f7 db                	neg    ebx
  402794:	48 39 db             	cmp    rbx,rbx
  402797:	fc                   	cld    
  402798:	90                   	nop
  402799:	48 f7 e7             	mul    rdi
  40279c:	48 ff ca             	dec    rdx
  40279f:	48 85 c3             	test   rbx,rax
  4027a2:	48 f7 ee             	imul   rsi
  4027a5:	48 39 db             	cmp    rbx,rbx
  4027a8:	f8                   	clc    
  4027a9:	fd                   	std    
  4027aa:	48 f7 da             	neg    rdx
  4027ad:	51                   	push   rcx
  4027ae:	48 c7 c0 6f 00 00 00 	mov    rax,0x6f
  4027b5:	0f 05                	syscall 
  4027b7:	59                   	pop    rcx
  4027b8:	c6 04 25 90 71 62 00 	mov    BYTE PTR ds:0x627190,0x4a
  4027bf:	4a 
  4027c0:	51                   	push   rcx
  4027c1:	cc                   	int3   
  4027c2:	c7 c0 68 00 00 00    	mov    eax,0x68
  4027c8:	0f 05                	syscall 
  4027ca:	59                   	pop    rcx
  4027cb:	f8                   	clc    
  4027cc:	48 85 d2             	test   rdx,rdx
  4027cf:	fd                   	std    
  4027d0:	f8                   	clc    
  4027d1:	51                   	push   rcx
  4027d2:	48 c7 c0 6c 00 00 00 	mov    rax,0x6c
  4027d9:	0f 05                	syscall 
  4027db:	59                   	pop    rcx
  4027dc:	cc                   	int3   
  4027dd:	09 f2                	or     edx,esi
  4027df:	48 ff c6             	inc    rsi
  4027e2:	48 87 f6             	xchg   rsi,rsi
  4027e5:	cc                   	int3   
  4027e6:	48 87 f6             	xchg   rsi,rsi
  4027e9:	48 f7 df             	neg    rdi
  4027ec:	48 f7 da             	neg    rdx
  4027ef:	48 ff ce             	dec    rsi
  4027f2:	cc                   	int3   
  4027f3:	48 01 d3             	add    rbx,rdx
  4027f6:	f8                   	clc    
  4027f7:	51                   	push   rcx
  4027f8:	48 c7 c0 18 00 00 00 	mov    rax,0x18
  4027ff:	0f 05                	syscall 
  402801:	59                   	pop    rcx
  402802:	48 f7 e8             	imul   rax
  402805:	f9                   	stc    
  402806:	cc                   	int3   
  402807:	92                   	xchg   edx,eax
  402808:	cc                   	int3   
  402809:	f7 e7                	mul    edi
  40280b:	48 01 d2             	add    rdx,rdx
  40280e:	f9                   	stc    
  40280f:	48 ff ca             	dec    rdx
  402812:	48 01 d8             	add    rax,rbx
  402815:	c6 04 25 98 71 62 00 	mov    BYTE PTR ds:0x627198,0xca
  40281c:	ca 
  40281d:	48 89 f2             	mov    rdx,rsi
  402820:	90                   	nop
  402821:	fc                   	cld    
  402822:	48 39 d7             	cmp    rdi,rdx
  402825:	48 29 fb             	sub    rbx,rdi
  402828:	51                   	push   rcx
  402829:	48 c7 c0 68 00 00 00 	mov    rax,0x68
  402830:	0f 05                	syscall 
  402832:	59                   	pop    rcx
  402833:	48 f7 d8             	neg    rax
  402836:	48 21 f8             	and    rax,rdi
  402839:	48 f7 db             	neg    rbx
  40283c:	48 f7 da             	neg    rdx
  40283f:	48 39 fa             	cmp    rdx,rdi
  402842:	48 f7 ee             	imul   rsi
  402845:	fd                   	std    
  402846:	48 01 d0             	add    rax,rdx
  402849:	fc                   	cld    
  40284a:	48 f7 d8             	neg    rax
  40284d:	fd                   	std    
  40284e:	f8                   	clc    
  40284f:	48 f7 e2             	mul    rdx
  402852:	90                   	nop
  402853:	90                   	nop
  402854:	f8                   	clc    
  402855:	90                   	nop
  402856:	f9                   	stc    
  402857:	48 85 c6             	test   rsi,rax
  40285a:	48 29 db             	sub    rbx,rbx
  40285d:	f8                   	clc    
  40285e:	fd                   	std    
  40285f:	cc                   	int3   
  402860:	ff c6                	inc    esi
  402862:	48 ff c7             	inc    rdi
  402865:	90                   	nop
  402866:	90                   	nop
  402867:	cc                   	int3   
  402868:	48 c7 c0 66 00 00 00 	mov    rax,0x66
  40286f:	0f 05                	syscall 
  402871:	59                   	pop    rcx
  402872:	48 ff c3             	inc    rbx
  402875:	51                   	push   rcx
  402876:	48 c7 c0 6c 00 00 00 	mov    rax,0x6c
  40287d:	0f 05                	syscall 
  40287f:	59                   	pop    rcx
  402880:	c6 04 25 cc 71 62 00 	mov    BYTE PTR ds:0x6271cc,0xa8
  402887:	a8 
  402888:	90                   	nop
  402889:	51                   	push   rcx
  40288a:	48 c7 c0 6e 00 00 00 	mov    rax,0x6e
  402891:	0f 05                	syscall 
  402893:	cc                   	int3   
  402894:	90                   	nop
  402895:	48 ff ca             	dec    rdx
  402898:	48 ff ca             	dec    rdx
  40289b:	51                   	push   rcx
  40289c:	48 c7 c0 6b 00 00 00 	mov    rax,0x6b
  4028a3:	cc                   	int3   
  4028a4:	05 59 cc f7 e6       	add    eax,0xe6f7cc59
  4028a9:	c6 04 25 c0 71 62 00 	mov    BYTE PTR ds:0x6271c0,0x6c
  4028b0:	6c 
  4028b1:	48 85 fe             	test   rsi,rdi
  4028b4:	48 ff c3             	inc    rbx
  4028b7:	f9                   	stc    
  4028b8:	48 85 da             	test   rdx,rbx
  4028bb:	f9                   	stc    
  4028bc:	48 09 f6             	or     rsi,rsi
  4028bf:	48 f7 db             	neg    rbx
  4028c2:	48 01 f7             	add    rdi,rsi
  4028c5:	48 21 f6             	and    rsi,rsi
  4028c8:	fc                   	cld    
  4028c9:	cc                   	int3   
  4028ca:	48 92                	xchg   rdx,rax
  4028cc:	fd                   	std    
  4028cd:	fd                   	std    
  4028ce:	fc                   	cld    
  4028cf:	48 ff c3             	inc    rbx
  4028d2:	51                   	push   rcx
  4028d3:	48 c7 c0 6b 00 00 00 	mov    rax,0x6b
  4028da:	0f 05                	syscall 
  4028dc:	59                   	pop    rcx
  4028dd:	48 f7 da             	neg    rdx
  4028e0:	51                   	push   rcx
  4028e1:	48 c7 c0 66 00 00 00 	mov    rax,0x66
  4028e8:	cc                   	int3   
  4028e9:	05 59 48 09 c2       	add    eax,0xc2094859
  4028ee:	f8                   	clc    
  4028ef:	90                   	nop
  4028f0:	f9                   	stc    
  4028f1:	48 09 d6             	or     rsi,rdx
  4028f4:	51                   	push   rcx
  4028f5:	48 c7 c0 27 00 00 00 	mov    rax,0x27
  4028fc:	cc                   	int3   
  4028fd:	05 cc 48 f7 e3       	add    eax,0xe3f748cc
  402902:	fd                   	std    
  402903:	48 89 c7             	mov    rdi,rax
  402906:	fc                   	cld    
  402907:	f9                   	stc    
  402908:	cc                   	int3   
  402909:	04 25                	add    al,0x25
  40290b:	ee                   	out    dx,al
  40290c:	71 62                	jno    402970 <_start+0x28c0>
  40290e:	00 73 f9             	add    BYTE PTR [rbx-0x7],dh
  402911:	f8                   	clc    
  402912:	48 31 de             	xor    rsi,rbx
  402915:	51                   	push   rcx
  402916:	48 c7 c0 6f 00 00 00 	mov    rax,0x6f
  40291d:	0f 05                	syscall 
  40291f:	59                   	pop    rcx
  402920:	fc                   	cld    
  402921:	48 ff c3             	inc    rbx
  402924:	48 ff c8             	dec    rax
  402927:	48 ff c0             	inc    rax
  40292a:	fd                   	std    
  40292b:	48 39 de             	cmp    rsi,rbx
  40292e:	48 f7 e0             	mul    rax
  402931:	51                   	push   rcx
  402932:	48 c7 c0 6c 00 00 00 	mov    rax,0x6c
  402939:	0f 05                	syscall 
  40293b:	59                   	pop    rcx
  40293c:	48 85 d6             	test   rsi,rdx
  40293f:	90                   	nop
  402940:	48 ff c7             	inc    rdi
  402943:	48 85 fb             	test   rbx,rdi
  402946:	48 f7 ea             	imul   rdx
  402949:	f8                   	clc    
  40294a:	48 f7 db             	neg    rbx
  40294d:	48 21 f2             	and    rdx,rsi
  402950:	48 f7 e8             	imul   rax
  402953:	f8                   	clc    
  402954:	f8                   	clc    
  402955:	48 ff cb             	dec    rbx
  402958:	cc                   	int3   
  402959:	fc                   	cld    
  40295a:	48 ff ce             	dec    rsi
  40295d:	51                   	push   rcx
  40295e:	48 c7 c0 6e 00 00 00 	mov    rax,0x6e
  402965:	cc                   	int3   
  402966:	05 59 48 92 48       	add    eax,0x48924859
  40296b:	f7 d8                	neg    eax
  40296d:	48 89 fe             	mov    rsi,rdi
  402970:	48 f7 e8             	imul   rax
  402973:	cc                   	int3   
  402974:	ff c8                	dec    eax
  402976:	fd                   	std    
  402977:	48 ff ce             	dec    rsi
  40297a:	f8                   	clc    
  40297b:	48 f7 ea             	imul   rdx
  40297e:	f8                   	clc    
  40297f:	f9                   	stc    
  402980:	48 31 c6             	xor    rsi,rax
  402983:	48 01 f6             	add    rsi,rsi
  402986:	cc                   	int3   
  402987:	cc                   	int3   
  402988:	48 ff ca             	dec    rdx
  40298b:	48 39 d6             	cmp    rsi,rdx
  40298e:	fc                   	cld    
  40298f:	48 f7 e7             	mul    rdi
  402992:	f8                   	clc    
  402993:	48 f7 e8             	imul   rax
  402996:	48 87 da             	xchg   rdx,rbx
  402999:	fd                   	std    
  40299a:	48 f7 e0             	mul    rax
  40299d:	48 89 c0             	mov    rax,rax
  4029a0:	f9                   	stc    
  4029a1:	48 29 d7             	sub    rdi,rdx
  4029a4:	51                   	push   rcx
  4029a5:	48 c7 c0 6b 00 00 00 	mov    rax,0x6b
  4029ac:	0f 05                	syscall 
  4029ae:	59                   	pop    rcx
  4029af:	48 f7 e8             	imul   rax
  4029b2:	48 f7 db             	neg    rbx
  4029b5:	51                   	push   rcx
  4029b6:	48 c7 c0 68 00 00 00 	mov    rax,0x68
  4029bd:	0f 05                	syscall 
  4029bf:	cc                   	int3   
  4029c0:	48 f7 ea             	imul   rdx
  4029c3:	48 f7 e3             	mul    rbx
  4029c6:	48 39 c7             	cmp    rdi,rax
  4029c9:	48 ff cb             	dec    rbx
  4029cc:	fd                   	std    
  4029cd:	51                   	push   rcx
  4029ce:	48 c7 c0 6c 00 00 00 	mov    rax,0x6c
  4029d5:	0f 05                	syscall 
  4029d7:	59                   	pop    rcx
  4029d8:	48 85 fa             	test   rdx,rdi
  4029db:	fd                   	std    
  4029dc:	cc                   	int3   
  4029dd:	48 c7 c0 6f 00 00 00 	mov    rax,0x6f
  4029e4:	0f 05                	syscall 
  4029e6:	59                   	pop    rcx
  4029e7:	fd                   	std    
  4029e8:	48 f7 d8             	neg    rax
  4029eb:	fd                   	std    
  4029ec:	fc                   	cld    
  4029ed:	48 ff c3             	inc    rbx
  4029f0:	f9                   	stc    
  4029f1:	cc                   	int3   
  4029f2:	04 25                	add    al,0x25
  4029f4:	c9                   	leave  
  4029f5:	71 62                	jno    402a59 <_start+0x29a9>
  4029f7:	00 af 48 f7 e0 fc    	add    BYTE PTR [rdi-0x31f08b8],ch
  4029fd:	48 ff c0             	inc    rax
  402a00:	48 87 d3             	xchg   rbx,rdx
  402a03:	fd                   	std    
  402a04:	90                   	nop
  402a05:	48 f7 d8             	neg    rax
  402a08:	fd                   	std    
  402a09:	48 39 d2             	cmp    rdx,rdx
  402a0c:	48 09 d8             	or     rax,rbx
  402a0f:	f8                   	clc    
  402a10:	48 85 c2             	test   rdx,rax
  402a13:	48 39 d2             	cmp    rdx,rdx
  402a16:	48 ff ca             	dec    rdx
  402a19:	48 92                	xchg   rdx,rax
  402a1b:	48 ff cb             	dec    rbx
  402a1e:	48 85 db             	test   rbx,rbx
  402a21:	51                   	push   rcx
  402a22:	48 c7 c0 27 00 00 00 	mov    rax,0x27
  402a29:	0f 05                	syscall 
  402a2b:	59                   	pop    rcx
  402a2c:	48 ff c8             	dec    rax
  402a2f:	fc                   	cld    
  402a30:	f8                   	clc    
  402a31:	48 87 ff             	xchg   rdi,rdi
  402a34:	fd                   	std    
  402a35:	fd                   	std    
  402a36:	48 89 df             	mov    rdi,rbx
  402a39:	48 01 c3             	add    rbx,rax
  402a3c:	fd                   	std    
  402a3d:	48 f7 ef             	imul   rdi
  402a40:	90                   	nop
  402a41:	48 ff c0             	inc    rax
  402a44:	48 31 f7             	xor    rdi,rsi
  402a47:	48 ff cb             	dec    rbx
  402a4a:	51                   	push   rcx
  402a4b:	48 c7 c0 6b 00 00 00 	mov    rax,0x6b
  402a52:	0f 05                	syscall 
  402a54:	59                   	pop    rcx
  402a55:	48 f7 de             	neg    rsi
  402a58:	48 39 da             	cmp    rdx,rbx
  402a5b:	48 96                	xchg   rsi,rax
  402a5d:	48 ff c3             	inc    rbx
  402a60:	48 01 f0             	add    rax,rsi
  402a63:	48 89 d3             	mov    rbx,rdx
  402a66:	48 ff cb             	dec    rbx
  402a69:	48 ff c7             	inc    rdi
  402a6c:	48 f7 de             	neg    rsi
  402a6f:	c6 04 25 ef 71 62 00 	mov    BYTE PTR ds:0x6271ef,0x7d
  402a76:	7d 
  402a77:	48 ff c0             	inc    rax
  402a7a:	f9                   	stc    
  402a7b:	51                   	push   rcx
  402a7c:	48 c7 c0 27 00 00 00 	mov    rax,0x27
  402a83:	0f 05                	syscall 
  402a85:	59                   	pop    rcx
  402a86:	48 29 f0             	sub    rax,rsi
  402a89:	51                   	push   rcx
  402a8a:	48 c7 c0 18 00 00 00 	mov    rax,0x18
  402a91:	0f 05                	syscall 
  402a93:	59                   	pop    rcx
  402a94:	fc                   	cld    
  402a95:	48 39 df             	cmp    rdi,rbx
  402a98:	48 89 c0             	mov    rax,rax
  402a9b:	cc                   	int3   
  402a9c:	29 f3                	sub    ebx,esi
  402a9e:	fc                   	cld    
  402a9f:	48 f7 ea             	imul   rdx
  402aa2:	48 f7 e7             	mul    rdi
  402aa5:	48 f7 de             	neg    rsi
  402aa8:	48 ff c2             	inc    rdx
  402aab:	c6 04 25 bb 71 62 00 	mov    BYTE PTR ds:0x6271bb,0x92
  402ab2:	92 
  402ab3:	48 f7 e0             	mul    rax
  402ab6:	48 ff cb             	dec    rbx
  402ab9:	f9                   	stc    
  402aba:	48 31 fb             	xor    rbx,rdi
  402abd:	48 ff cf             	dec    rdi
  402ac0:	48 21 f2             	and    rdx,rsi
  402ac3:	51                   	push   rcx
  402ac4:	48 c7 c0 6f 00 00 00 	mov    rax,0x6f
  402acb:	cc                   	int3   
  402acc:	05 59 f8 48 89       	add    eax,0x8948f859
  402ad1:	f0 48 f7 e7          	lock mul rdi
  402ad5:	48 85 f2             	test   rdx,rsi
  402ad8:	48 ff c6             	inc    rsi
  402adb:	48 f7 ee             	imul   rsi
  402ade:	48 ff cb             	dec    rbx
  402ae1:	48 01 f6             	add    rsi,rsi
  402ae4:	51                   	push   rcx
  402ae5:	cc                   	int3   
  402ae6:	c7 c0 6b 00 00 00    	mov    eax,0x6b
  402aec:	0f 05                	syscall 
  402aee:	59                   	pop    rcx
  402aef:	90                   	nop
  402af0:	48 ff ca             	dec    rdx
  402af3:	48 f7 db             	neg    rbx
  402af6:	48 29 df             	sub    rdi,rbx
  402af9:	cc                   	int3   
  402afa:	48 21 fe             	and    rsi,rdi
  402afd:	f9                   	stc    
  402afe:	f8                   	clc    
  402aff:	48 01 fe             	add    rsi,rdi
  402b02:	48 89 f7             	mov    rdi,rsi
  402b05:	48 f7 ee             	imul   rsi
  402b08:	48 39 c2             	cmp    rdx,rax
  402b0b:	f8                   	clc    
  402b0c:	48 39 d3             	cmp    rbx,rdx
  402b0f:	cc                   	int3   
  402b10:	fd                   	std    
  402b11:	48 29 d6             	sub    rsi,rdx
  402b14:	fc                   	cld    
  402b15:	f9                   	stc    
  402b16:	fc                   	cld    
  402b17:	48 89 d6             	mov    rsi,rdx
  402b1a:	cc                   	int3   
  402b1b:	85 c2                	test   edx,eax
  402b1d:	48 f7 ef             	imul   rdi
  402b20:	48 f7 da             	neg    rdx
  402b23:	48 f7 e0             	mul    rax
  402b26:	48 f7 de             	neg    rsi
  402b29:	48 21 fa             	and    rdx,rdi
  402b2c:	48 31 d6             	xor    rsi,rdx
  402b2f:	48 31 f3             	xor    rbx,rsi
  402b32:	48 09 fa             	or     rdx,rdi
  402b35:	f9                   	stc    
  402b36:	48 92                	xchg   rdx,rax
  402b38:	48 f7 d8             	neg    rax
  402b3b:	48 ff c3             	inc    rbx
  402b3e:	48 85 f2             	test   rdx,rsi
  402b41:	cc                   	int3   
  402b42:	85 d2                	test   edx,edx
  402b44:	48 85 db             	test   rbx,rbx
  402b47:	48 ff ca             	dec    rdx
  402b4a:	48 21 ff             	and    rdi,rdi
  402b4d:	cc                   	int3   
  402b4e:	01 f8                	add    eax,edi
  402b50:	f8                   	clc    
  402b51:	48 ff c8             	dec    rax
  402b54:	c6 04 25 b5 71 62 00 	mov    BYTE PTR ds:0x6271b5,0xaa
  402b5b:	aa 
  402b5c:	48 ff c8             	dec    rax
  402b5f:	fd                   	std    
  402b60:	f9                   	stc    
  402b61:	90                   	nop
  402b62:	48 09 d3             	or     rbx,rdx
  402b65:	f9                   	stc    
  402b66:	48 f7 e7             	mul    rdi
  402b69:	cc                   	int3   
  402b6a:	ff ce                	dec    esi
  402b6c:	51                   	push   rcx
  402b6d:	48 c7 c0 6e 00 00 00 	mov    rax,0x6e
  402b74:	0f 05                	syscall 
  402b76:	59                   	pop    rcx
  402b77:	48 ff c6             	inc    rsi
  402b7a:	fc                   	cld    
  402b7b:	48 31 f0             	xor    rax,rsi
  402b7e:	48 85 d6             	test   rsi,rdx
  402b81:	48 85 df             	test   rdi,rbx
  402b84:	cc                   	int3   
  402b85:	48 ff c8             	dec    rax
  402b88:	48 ff cf             	dec    rdi
  402b8b:	48 85 d2             	test   rdx,rdx
  402b8e:	48 87 d7             	xchg   rdi,rdx
  402b91:	cc                   	int3   
  402b92:	48 f7 e7             	mul    rdi
  402b95:	48 ff c8             	dec    rax
  402b98:	48 39 d6             	cmp    rsi,rdx
  402b9b:	cc                   	int3   
  402b9c:	f7 da                	neg    edx
  402b9e:	48 ff ce             	dec    rsi
  402ba1:	48 f7 e8             	imul   rax
  402ba4:	48 f7 e0             	mul    rax
  402ba7:	48 f7 db             	neg    rbx
  402baa:	fd                   	std    
  402bab:	48 f7 e8             	imul   rax
  402bae:	fd                   	std    
  402baf:	51                   	push   rcx
  402bb0:	48 c7 c0 18 00 00 00 	mov    rax,0x18
  402bb7:	0f 05                	syscall 
  402bb9:	59                   	pop    rcx
  402bba:	cc                   	int3   
  402bbb:	48 01 ff             	add    rdi,rdi
  402bbe:	90                   	nop
  402bbf:	cc                   	int3   
  402bc0:	31 f7                	xor    edi,esi
  402bc2:	48 01 f6             	add    rsi,rsi
  402bc5:	51                   	push   rcx
  402bc6:	48 c7 c0 6f 00 00 00 	mov    rax,0x6f
  402bcd:	0f 05                	syscall 
  402bcf:	59                   	pop    rcx
  402bd0:	cc                   	int3   
  402bd1:	48 f7 db             	neg    rbx
  402bd4:	48 ff c3             	inc    rbx
  402bd7:	48 ff cb             	dec    rbx
  402bda:	cc                   	int3   
  402bdb:	f7 d8                	neg    eax
  402bdd:	48 85 fb             	test   rbx,rdi
  402be0:	f9                   	stc    
  402be1:	48 89 d2             	mov    rdx,rdx
  402be4:	fc                   	cld    
  402be5:	fc                   	cld    
  402be6:	48 39 df             	cmp    rdi,rbx
  402be9:	48 ff cb             	dec    rbx
  402bec:	90                   	nop
  402bed:	51                   	push   rcx
  402bee:	48 c7 c0 6c 00 00 00 	mov    rax,0x6c
  402bf5:	0f 05                	syscall 
  402bf7:	59                   	pop    rcx
  402bf8:	fc                   	cld    
  402bf9:	48 f7 df             	neg    rdi
  402bfc:	cc                   	int3   
  402bfd:	cc                   	int3   
  402bfe:	31 d3                	xor    ebx,edx
  402c00:	f8                   	clc    
  402c01:	48 ff c2             	inc    rdx
  402c04:	cc                   	int3   
  402c05:	48 c7 c0 66 00 00 00 	mov    rax,0x66
  402c0c:	0f 05                	syscall 
  402c0e:	59                   	pop    rcx
  402c0f:	f8                   	clc    
  402c10:	fc                   	cld    
  402c11:	fd                   	std    
  402c12:	fc                   	cld    
  402c13:	fc                   	cld    
  402c14:	48 85 f3             	test   rbx,rsi
  402c17:	48 ff c7             	inc    rdi
  402c1a:	cc                   	int3   
  402c1b:	48 09 d7             	or     rdi,rdx
  402c1e:	48 ff cf             	dec    rdi
  402c21:	90                   	nop
  402c22:	f9                   	stc    
  402c23:	c6 04 25 f0 71 62 00 	mov    BYTE PTR ds:0x6271f0,0xa
  402c2a:	0a 
  402c2b:	48 31 c0             	xor    rax,rax
  402c2e:	48 ff c0             	inc    rax
  402c31:	48 31 ff             	xor    rdi,rdi
  402c34:	48 ff c7             	inc    rdi
  402c37:	48 c7 c6 d0 71 62 00 	mov    rsi,0x6271d0
  402c3e:	48 c7 c2 21 00 00 00 	mov    rdx,0x21
  402c45:	0f 05                	syscall 
  402c47:	51                   	push   rcx
  402c48:	48 c7 c0 6e 00 00 00 	mov    rax,0x6e
  402c4f:	cc                   	int3   
  402c50:	05 59 48 f7 e2       	add    eax,0xe2f74859
  402c55:	48 ff cb             	dec    rbx
  402c58:	48 89 da             	mov    rdx,rbx
  402c5b:	90                   	nop
  402c5c:	fc                   	cld    
  402c5d:	48 31 d3             	xor    rbx,rdx
  402c60:	90                   	nop
  402c61:	48 f7 e2             	mul    rdx
  402c64:	cc                   	int3   
  402c65:	04 25                	add    al,0x25
  402c67:	c0 71 62 00          	shl    BYTE PTR [rcx+0x62],0x0
  402c6b:	44                   	rex.R
  402c6c:	48 f7 e8             	imul   rax
  402c6f:	48 85 d2             	test   rdx,rdx
  402c72:	48 01 d7             	add    rdi,rdx
  402c75:	fc                   	cld    
  402c76:	48 f7 eb             	imul   rbx
  402c79:	fd                   	std    
  402c7a:	48 29 f6             	sub    rsi,rsi
  402c7d:	fd                   	std    
  402c7e:	f9                   	stc    
  402c7f:	90                   	nop
  402c80:	48 f7 e2             	mul    rdx
  402c83:	cc                   	int3   
  402c84:	48 29 de             	sub    rsi,rbx
  402c87:	48 f7 eb             	imul   rbx
  402c8a:	48 ff c2             	inc    rdx
  402c8d:	fd                   	std    
  402c8e:	90                   	nop
  402c8f:	f9                   	stc    
  402c90:	48 01 de             	add    rsi,rbx
  402c93:	48 97                	xchg   rdi,rax
  402c95:	48 f7 db             	neg    rbx
  402c98:	fd                   	std    
  402c99:	48 f7 e0             	mul    rax
  402c9c:	48 09 ff             	or     rdi,rdi
  402c9f:	48 29 f6             	sub    rsi,rsi
  402ca2:	48 01 df             	add    rdi,rbx
  402ca5:	fc                   	cld    
  402ca6:	90                   	nop
  402ca7:	48 ff ce             	dec    rsi
  402caa:	48 29 de             	sub    rsi,rbx
  402cad:	f8                   	clc    
  402cae:	cc                   	int3   
  402caf:	48 ff ca             	dec    rdx
  402cb2:	48 31 c3             	xor    rbx,rax
  402cb5:	f9                   	stc    
  402cb6:	48 f7 df             	neg    rdi
  402cb9:	fd                   	std    
  402cba:	f9                   	stc    
  402cbb:	51                   	push   rcx
  402cbc:	48 c7 c0 6b 00 00 00 	mov    rax,0x6b
  402cc3:	0f 05                	syscall 
  402cc5:	59                   	pop    rcx
  402cc6:	90                   	nop
  402cc7:	48 39 de             	cmp    rsi,rbx
  402cca:	48 f7 e3             	mul    rbx
  402ccd:	90                   	nop
  402cce:	48 89 c2             	mov    rdx,rax
  402cd1:	48 f7 e8             	imul   rax
  402cd4:	48 01 f8             	add    rax,rdi
  402cd7:	fc                   	cld    
  402cd8:	f9                   	stc    
  402cd9:	48 ff cf             	dec    rdi
  402cdc:	48 09 c3             	or     rbx,rax
  402cdf:	48 31 d2             	xor    rdx,rdx
  402ce2:	fd                   	std    
  402ce3:	48 f7 e2             	mul    rdx
  402ce6:	48 f7 e0             	mul    rax
  402ce9:	48 89 db             	mov    rbx,rbx
  402cec:	90                   	nop
  402ced:	48 39 f6             	cmp    rsi,rsi
  402cf0:	f9                   	stc    
  402cf1:	48 01 f0             	add    rax,rsi
  402cf4:	48 01 c2             	add    rdx,rax
  402cf7:	48 31 f7             	xor    rdi,rsi
  402cfa:	cc                   	int3   
  402cfb:	48 39 df             	cmp    rdi,rbx
  402cfe:	fc                   	cld    
  402cff:	48 f7 d8             	neg    rax
  402d02:	48 f7 e3             	mul    rbx
  402d05:	f8                   	clc    
  402d06:	51                   	push   rcx
  402d07:	48 c7 c0 6f 00 00 00 	mov    rax,0x6f
  402d0e:	cc                   	int3   
  402d0f:	05 59 48 f7 e7       	add    eax,0xe7f74859
  402d14:	fd                   	std    
  402d15:	fd                   	std    
  402d16:	f9                   	stc    
  402d17:	48 87 d3             	xchg   rbx,rdx
  402d1a:	cc                   	int3   
  402d1b:	01 d3                	add    ebx,edx
  402d1d:	48 01 d8             	add    rax,rbx
  402d20:	fd                   	std    
  402d21:	48 96                	xchg   rsi,rax
  402d23:	48 f7 db             	neg    rbx
  402d26:	cc                   	int3   
  402d27:	f7 ee                	imul   esi
  402d29:	48 87 fb             	xchg   rbx,rdi
  402d2c:	48 ff cb             	dec    rbx
  402d2f:	48 f7 e8             	imul   rax
  402d32:	48 29 d0             	sub    rax,rdx
  402d35:	48 f7 ee             	imul   rsi
  402d38:	90                   	nop
  402d39:	48 f7 da             	neg    rdx
  402d3c:	f9                   	stc    
  402d3d:	48 f7 de             	neg    rsi
  402d40:	48 89 fb             	mov    rbx,rdi
  402d43:	48 f7 e7             	mul    rdi
  402d46:	90                   	nop
  402d47:	48 f7 e2             	mul    rdx
  402d4a:	48 85 d3             	test   rbx,rdx
  402d4d:	fd                   	std    
  402d4e:	f9                   	stc    
  402d4f:	48 39 d8             	cmp    rax,rbx
  402d52:	48 f7 ea             	imul   rdx
  402d55:	48 f7 d8             	neg    rax
  402d58:	c6 04 25 b9 71 62 00 	mov    BYTE PTR ds:0x6271b9,0x8d
  402d5f:	8d 
  402d60:	48 31 f8             	xor    rax,rdi
  402d63:	48 89 d8             	mov    rax,rbx
  402d66:	48 09 de             	or     rsi,rbx
  402d69:	48 f7 e2             	mul    rdx
  402d6c:	f8                   	clc    
  402d6d:	48 29 d8             	sub    rax,rbx
  402d70:	f8                   	clc    
  402d71:	48 01 c0             	add    rax,rax
  402d74:	48 39 f3             	cmp    rbx,rsi
  402d77:	cc                   	int3   
  402d78:	f7 d8                	neg    eax
  402d7a:	90                   	nop
  402d7b:	f9                   	stc    
  402d7c:	51                   	push   rcx
  402d7d:	48 c7 c0 6b 00 00 00 	mov    rax,0x6b
  402d84:	cc                   	int3   
  402d85:	05 59 90 48 29       	add    eax,0x29489059
  402d8a:	de fd                	fdivp  st(5),st
  402d8c:	48 21 c2             	and    rdx,rax
  402d8f:	51                   	push   rcx
  402d90:	48 c7 c0 6c 00 00 00 	mov    rax,0x6c
  402d97:	0f 05                	syscall 
  402d99:	59                   	pop    rcx
  402d9a:	48 f7 d8             	neg    rax
  402d9d:	48 31 f8             	xor    rax,rdi
  402da0:	48 01 d3             	add    rbx,rdx
  402da3:	c6 04 25 c2 71 62 00 	mov    BYTE PTR ds:0x6271c2,0x39
  402daa:	39 
  402dab:	48 01 fa             	add    rdx,rdi
  402dae:	f8                   	clc    
  402daf:	48 ff ce             	dec    rsi
  402db2:	cc                   	int3   
  402db3:	48 f7 e8             	imul   rax
  402db6:	48 01 db             	add    rbx,rbx
  402db9:	51                   	push   rcx
  402dba:	cc                   	int3   
  402dbb:	c7 c0 6e 00 00 00    	mov    eax,0x6e
  402dc1:	0f 05                	syscall 
  402dc3:	59                   	pop    rcx
  402dc4:	48 f7 db             	neg    rbx
  402dc7:	48 29 f0             	sub    rax,rsi
  402dca:	48 21 f7             	and    rdi,rsi
  402dcd:	48 21 d3             	and    rbx,rdx
  402dd0:	48 ff cf             	dec    rdi
  402dd3:	48 87 da             	xchg   rdx,rbx
  402dd6:	48 31 f3             	xor    rbx,rsi
  402dd9:	48 21 c3             	and    rbx,rax
  402ddc:	48 ff c8             	dec    rax
  402ddf:	48 29 da             	sub    rdx,rbx
  402de2:	48 09 d8             	or     rax,rbx
  402de5:	fd                   	std    
  402de6:	fc                   	cld    
  402de7:	48 f7 df             	neg    rdi
  402dea:	48 89 c7             	mov    rdi,rax
  402ded:	51                   	push   rcx
  402dee:	48 c7 c0 6b 00 00 00 	mov    rax,0x6b
  402df5:	0f 05                	syscall 
  402df7:	59                   	pop    rcx
  402df8:	48 ff c3             	inc    rbx
  402dfb:	f8                   	clc    
  402dfc:	48 85 c0             	test   rax,rax
  402dff:	cc                   	int3   
  402e00:	87 fe                	xchg   esi,edi
  402e02:	f9                   	stc    
  402e03:	48 21 fe             	and    rsi,rdi
  402e06:	51                   	push   rcx
  402e07:	48 c7 c0 66 00 00 00 	mov    rax,0x66
  402e0e:	0f 05                	syscall 
  402e10:	59                   	pop    rcx
  402e11:	48 21 f3             	and    rbx,rsi
  402e14:	cc                   	int3   
  402e15:	31 ff                	xor    edi,edi
  402e17:	48 89 da             	mov    rdx,rbx
  402e1a:	48 ff c8             	dec    rax
  402e1d:	48 09 ff             	or     rdi,rdi
  402e20:	48 21 c2             	and    rdx,rax
  402e23:	48 39 fb             	cmp    rbx,rdi
  402e26:	48 ff cb             	dec    rbx
  402e29:	48 ff cb             	dec    rbx
  402e2c:	48 39 fb             	cmp    rbx,rdi
  402e2f:	48 31 d8             	xor    rax,rbx
  402e32:	cc                   	int3   
  402e33:	ff c8                	dec    eax
  402e35:	48 01 df             	add    rdi,rbx
  402e38:	48 ff c6             	inc    rsi
  402e3b:	f9                   	stc    
  402e3c:	48 f7 e6             	mul    rsi
  402e3f:	48 ff c2             	inc    rdx
  402e42:	cc                   	int3   
  402e43:	f7 e6                	mul    esi
  402e45:	48 f7 e7             	mul    rdi
  402e48:	48 01 d8             	add    rax,rbx
  402e4b:	48 85 fe             	test   rsi,rdi
  402e4e:	48 89 fa             	mov    rdx,rdi
  402e51:	cc                   	int3   
  402e52:	39 c0                	cmp    eax,eax
  402e54:	48 87 fa             	xchg   rdx,rdi
  402e57:	48 29 c3             	sub    rbx,rax
  402e5a:	48 87 da             	xchg   rdx,rbx
  402e5d:	fd                   	std    
  402e5e:	48 09 f7             	or     rdi,rsi
  402e61:	cc                   	int3   
  402e62:	01 d6                	add    esi,edx
  402e64:	51                   	push   rcx
  402e65:	48 c7 c0 68 00 00 00 	mov    rax,0x68
  402e6c:	0f 05                	syscall 
  402e6e:	59                   	pop    rcx
  402e6f:	48 f7 e0             	mul    rax
  402e72:	cc                   	int3   
  402e73:	21 d0                	and    eax,edx
  402e75:	f8                   	clc    
  402e76:	48 87 d6             	xchg   rsi,rdx
  402e79:	51                   	push   rcx
  402e7a:	48 c7 c0 6f 00 00 00 	mov    rax,0x6f
  402e81:	0f 05                	syscall 
  402e83:	59                   	pop    rcx
  402e84:	f8                   	clc    
  402e85:	fc                   	cld    
  402e86:	f8                   	clc    
  402e87:	48 93                	xchg   rbx,rax
  402e89:	48 21 d7             	and    rdi,rdx
  402e8c:	48 01 c7             	add    rdi,rax
  402e8f:	fc                   	cld    
  402e90:	fd                   	std    
  402e91:	51                   	push   rcx
  402e92:	48 c7 c0 6e 00 00 00 	mov    rax,0x6e
  402e99:	0f 05                	syscall 
  402e9b:	59                   	pop    rcx
  402e9c:	48 f7 df             	neg    rdi
  402e9f:	c6 04 25 a7 71 62 00 	mov    BYTE PTR ds:0x6271a7,0x56
  402ea6:	56 
  402ea7:	48 f7 db             	neg    rbx
  402eaa:	48 29 c0             	sub    rax,rax
  402ead:	48 85 c6             	test   rsi,rax
  402eb0:	cc                   	int3   
  402eb1:	fc                   	cld    
  402eb2:	f9                   	stc    
  402eb3:	48 f7 de             	neg    rsi
  402eb6:	48 ff c7             	inc    rdi
  402eb9:	fc                   	cld    
  402eba:	48 29 f8             	sub    rax,rdi
  402ebd:	48 f7 ef             	imul   rdi
  402ec0:	c6 04 25 a4 71 62 00 	mov    BYTE PTR ds:0x6271a4,0x2
  402ec7:	02 
  402ec8:	c6 04 25 bc 71 62 00 	mov    BYTE PTR ds:0x6271bc,0x69
  402ecf:	69 
  402ed0:	48 ff c0             	inc    rax
  402ed3:	fd                   	std    
  402ed4:	f8                   	clc    
  402ed5:	48 39 d3             	cmp    rbx,rdx
  402ed8:	48 f7 ea             	imul   rdx
  402edb:	cc                   	int3   
  402edc:	04 25                	add    al,0x25
  402ede:	cc                   	int3   
  402edf:	71 62                	jno    402f43 <_start+0x2e93>
  402ee1:	00 65 48             	add    BYTE PTR [rbp+0x48],ah
  402ee4:	87 fb                	xchg   ebx,edi
  402ee6:	cc                   	int3   
  402ee7:	09 c3                	or     ebx,eax
  402ee9:	c6 04 25 c5 71 62 00 	mov    BYTE PTR ds:0x6271c5,0x41
  402ef0:	41 
  402ef1:	cc                   	int3   
  402ef2:	f7 e0                	mul    eax
  402ef4:	48 39 d2             	cmp    rdx,rdx
  402ef7:	48 01 c6             	add    rsi,rax
  402efa:	48 ff c2             	inc    rdx
  402efd:	48 01 d6             	add    rsi,rdx
  402f00:	48 f7 ee             	imul   rsi
  402f03:	90                   	nop
  402f04:	48 09 c7             	or     rdi,rax
  402f07:	48 f7 ef             	imul   rdi
  402f0a:	48 89 d8             	mov    rax,rbx
  402f0d:	48 ff c8             	dec    rax
  402f10:	f9                   	stc    
  402f11:	48 89 fe             	mov    rsi,rdi
  402f14:	48 01 f2             	add    rdx,rsi
  402f17:	fc                   	cld    
  402f18:	48 21 d2             	and    rdx,rdx
  402f1b:	48 31 c6             	xor    rsi,rax
  402f1e:	48 87 f6             	xchg   rsi,rsi
  402f21:	48 85 f3             	test   rbx,rsi
  402f24:	48 f7 df             	neg    rdi
  402f27:	fd                   	std    
  402f28:	c6 04 25 c5 71 62 00 	mov    BYTE PTR ds:0x6271c5,0x87
  402f2f:	87 
  402f30:	48 09 ff             	or     rdi,rdi
  402f33:	fd                   	std    
  402f34:	48 ff c3             	inc    rbx
  402f37:	fd                   	std    
  402f38:	48 39 db             	cmp    rbx,rbx
  402f3b:	48 01 fb             	add    rbx,rdi
  402f3e:	cc                   	int3   
  402f3f:	ff c7                	inc    edi
  402f41:	48 85 f2             	test   rdx,rsi
  402f44:	fc                   	cld    
  402f45:	fc                   	cld    
  402f46:	48 39 f2             	cmp    rdx,rsi
  402f49:	48 29 de             	sub    rsi,rbx
  402f4c:	fc                   	cld    
  402f4d:	fc                   	cld    
  402f4e:	48 89 f0             	mov    rax,rsi
  402f51:	48 f7 db             	neg    rbx
  402f54:	fc                   	cld    
  402f55:	f8                   	clc    
  402f56:	cc                   	int3   
  402f57:	48 ff c3             	inc    rbx
  402f5a:	48 01 d3             	add    rbx,rdx
  402f5d:	48 39 f2             	cmp    rdx,rsi
  402f60:	51                   	push   rcx
  402f61:	48 c7 c0 18 00 00 00 	mov    rax,0x18
  402f68:	0f 05                	syscall 
  402f6a:	59                   	pop    rcx
  402f6b:	cc                   	int3   
  402f6c:	48 85 f2             	test   rdx,rsi
  402f6f:	90                   	nop
  402f70:	cc                   	int3   
  402f71:	ff ca                	dec    edx
  402f73:	fd                   	std    
  402f74:	48 f7 e0             	mul    rax
  402f77:	48 39 c6             	cmp    rsi,rax
  402f7a:	48 09 d7             	or     rdi,rdx
  402f7d:	48 31 d8             	xor    rax,rbx
  402f80:	48 39 d6             	cmp    rsi,rdx
  402f83:	48 21 d3             	and    rbx,rdx
  402f86:	48 39 f0             	cmp    rax,rsi
  402f89:	90                   	nop
  402f8a:	48 f7 e0             	mul    rax
  402f8d:	51                   	push   rcx
  402f8e:	48 c7 c0 66 00 00 00 	mov    rax,0x66
  402f95:	0f 05                	syscall 
  402f97:	59                   	pop    rcx
  402f98:	f8                   	clc    
  402f99:	48 89 f6             	mov    rsi,rsi
  402f9c:	48 09 db             	or     rbx,rbx
  402f9f:	fc                   	cld    
  402fa0:	c6 04 25 b7 71 62 00 	mov    BYTE PTR ds:0x6271b7,0xac
  402fa7:	ac 
  402fa8:	48 09 fa             	or     rdx,rdi
  402fab:	90                   	nop
  402fac:	48 29 c3             	sub    rbx,rax
  402faf:	48 29 d2             	sub    rdx,rdx
  402fb2:	48 ff c7             	inc    rdi
  402fb5:	cc                   	int3   
  402fb6:	21 c7                	and    edi,eax
  402fb8:	48 ff cf             	dec    rdi
  402fbb:	48 21 db             	and    rbx,rbx
  402fbe:	f8                   	clc    
  402fbf:	f9                   	stc    
  402fc0:	51                   	push   rcx
  402fc1:	48 c7 c0 66 00 00 00 	mov    rax,0x66
  402fc8:	0f 05                	syscall 
  402fca:	59                   	pop    rcx
  402fcb:	f9                   	stc    
  402fcc:	48 89 d6             	mov    rsi,rdx
  402fcf:	51                   	push   rcx
  402fd0:	48 c7 c0 6e 00 00 00 	mov    rax,0x6e
  402fd7:	0f 05                	syscall 
  402fd9:	cc                   	int3   
  402fda:	48 39 c3             	cmp    rbx,rax
  402fdd:	48 f7 ef             	imul   rdi
  402fe0:	fd                   	std    
  402fe1:	51                   	push   rcx
  402fe2:	48 c7 c0 18 00 00 00 	mov    rax,0x18
  402fe9:	0f 05                	syscall 
  402feb:	59                   	pop    rcx
  402fec:	cc                   	int3   
  402fed:	48 ff c0             	inc    rax
  402ff0:	48 31 db             	xor    rbx,rbx
  402ff3:	48 09 f2             	or     rdx,rsi
  402ff6:	48 21 ff             	and    rdi,rdi
  402ff9:	f8                   	clc    
  402ffa:	f9                   	stc    
  402ffb:	48 01 d7             	add    rdi,rdx
  402ffe:	48 29 c7             	sub    rdi,rax
  403001:	48 39 da             	cmp    rdx,rbx
  403004:	fd                   	std    
  403005:	48 f7 ef             	imul   rdi
  403008:	48 f7 de             	neg    rsi
  40300b:	c6 04 25 9a 71 62 00 	mov    BYTE PTR ds:0x62719a,0xf7
  403012:	f7 
  403013:	90                   	nop
  403014:	90                   	nop
  403015:	48 f7 e6             	mul    rsi
  403018:	51                   	push   rcx
  403019:	48 c7 c0 27 00 00 00 	mov    rax,0x27
  403020:	0f 05                	syscall 
  403022:	cc                   	int3   
  403023:	f8                   	clc    
  403024:	fd                   	std    
  403025:	51                   	push   rcx
  403026:	48 c7 c0 66 00 00 00 	mov    rax,0x66
  40302d:	0f 05                	syscall 
  40302f:	59                   	pop    rcx
  403030:	cc                   	int3   
  403031:	f7 e6                	mul    esi
  403033:	fd                   	std    
  403034:	48 f7 de             	neg    rsi
  403037:	fc                   	cld    
  403038:	fc                   	cld    
  403039:	fd                   	std    
  40303a:	48 29 fe             	sub    rsi,rdi
  40303d:	48 09 d7             	or     rdi,rdx
  403040:	48 f7 e3             	mul    rbx
  403043:	fd                   	std    
  403044:	48 f7 e0             	mul    rax
  403047:	48 89 f2             	mov    rdx,rsi
  40304a:	48 09 da             	or     rdx,rbx
  40304d:	48 39 f0             	cmp    rax,rsi
  403050:	48 ff c2             	inc    rdx
  403053:	48 f7 ea             	imul   rdx
  403056:	f9                   	stc    
  403057:	fc                   	cld    
  403058:	f9                   	stc    
  403059:	48 f7 e6             	mul    rsi
  40305c:	48 ff c2             	inc    rdx
  40305f:	90                   	nop
  403060:	48 01 c2             	add    rdx,rax
  403063:	f9                   	stc    
  403064:	48 ff ca             	dec    rdx
  403067:	f8                   	clc    
  403068:	48 01 d8             	add    rax,rbx
  40306b:	f8                   	clc    
  40306c:	f9                   	stc    
  40306d:	fc                   	cld    
  40306e:	48 09 d3             	or     rbx,rdx
  403071:	48 89 f0             	mov    rax,rsi
  403074:	cc                   	int3   
  403075:	29 c7                	sub    edi,eax
  403077:	f8                   	clc    
  403078:	48 ff ce             	dec    rsi
  40307b:	48 21 d0             	and    rax,rdx
  40307e:	48 21 d6             	and    rsi,rdx
  403081:	cc                   	int3   
  403082:	48 c7 c0 6f 00 00 00 	mov    rax,0x6f
  403089:	0f 05                	syscall 
  40308b:	59                   	pop    rcx
  40308c:	51                   	push   rcx
  40308d:	48 c7 c0 27 00 00 00 	mov    rax,0x27
  403094:	0f 05                	syscall 
  403096:	59                   	pop    rcx
  403097:	48 ff c6             	inc    rsi
  40309a:	51                   	push   rcx
  40309b:	48 c7 c0 6b 00 00 00 	mov    rax,0x6b
  4030a2:	0f 05                	syscall 
  4030a4:	59                   	pop    rcx
  4030a5:	51                   	push   rcx
  4030a6:	48 c7 c0 6c 00 00 00 	mov    rax,0x6c
  4030ad:	0f 05                	syscall 
  4030af:	59                   	pop    rcx
  4030b0:	48 f7 e0             	mul    rax
  4030b3:	48 ff ce             	dec    rsi
  4030b6:	c6 04 25 c8 71 62 00 	mov    BYTE PTR ds:0x6271c8,0x51
  4030bd:	51 
  4030be:	f8                   	clc    
  4030bf:	48 01 da             	add    rdx,rbx
  4030c2:	48 f7 df             	neg    rdi
  4030c5:	f8                   	clc    
  4030c6:	cc                   	int3   
  4030c7:	f7 eb                	imul   ebx
  4030c9:	48 01 da             	add    rdx,rbx
  4030cc:	48 29 d0             	sub    rax,rdx
  4030cf:	48 21 c6             	and    rsi,rax
  4030d2:	51                   	push   rcx
  4030d3:	cc                   	int3   
  4030d4:	c7 c0 6b 00 00 00    	mov    eax,0x6b
  4030da:	0f 05                	syscall 
  4030dc:	59                   	pop    rcx
  4030dd:	48 31 f6             	xor    rsi,rsi
  4030e0:	48 31 c3             	xor    rbx,rax
  4030e3:	48 f7 e2             	mul    rdx
  4030e6:	48 39 d0             	cmp    rax,rdx
  4030e9:	f9                   	stc    
  4030ea:	48 31 f2             	xor    rdx,rsi
  4030ed:	cc                   	int3   
  4030ee:	ff c2                	inc    edx
  4030f0:	48 f7 e3             	mul    rbx
  4030f3:	48 f7 e0             	mul    rax
  4030f6:	f9                   	stc    
  4030f7:	48 89 d7             	mov    rdi,rdx
  4030fa:	48 01 da             	add    rdx,rbx
  4030fd:	cc                   	int3   
  4030fe:	cc                   	int3   
  4030ff:	ff c7                	inc    edi
  403101:	cc                   	int3   
  403102:	48 c7 c0 6c 00 00 00 	mov    rax,0x6c
  403109:	cc                   	int3   
  40310a:	05 cc f8 51 48       	add    eax,0x4851f8cc
  40310f:	c7 c0 6e 00 00 00    	mov    eax,0x6e
  403115:	0f 05                	syscall 
  403117:	59                   	pop    rcx
  403118:	48 29 fb             	sub    rbx,rdi
  40311b:	48 f7 e3             	mul    rbx
  40311e:	48 f7 e2             	mul    rdx
  403121:	48 ff ca             	dec    rdx
  403124:	48 f7 db             	neg    rbx
  403127:	c6 04 25 a7 71 62 00 	mov    BYTE PTR ds:0x6271a7,0x2
  40312e:	02 
  40312f:	cc                   	int3   
  403130:	f7 ee                	imul   esi
  403132:	48 f7 ef             	imul   rdi
  403135:	48 ff ca             	dec    rdx
  403138:	48 f7 e3             	mul    rbx
  40313b:	cc                   	int3   
  40313c:	f7 e2                	mul    edx
  40313e:	cc                   	int3   
  40313f:	31 d0                	xor    eax,edx
  403141:	48 01 d3             	add    rbx,rdx
  403144:	90                   	nop
  403145:	48 f7 e0             	mul    rax
  403148:	48 ff c0             	inc    rax
  40314b:	fd                   	std    
  40314c:	f8                   	clc    
  40314d:	48 09 da             	or     rdx,rbx
  403150:	51                   	push   rcx
  403151:	48 c7 c0 6b 00 00 00 	mov    rax,0x6b
  403158:	0f 05                	syscall 
  40315a:	59                   	pop    rcx
  40315b:	48 01 fe             	add    rsi,rdi
  40315e:	48 89 fe             	mov    rsi,rdi
  403161:	cc                   	int3   
  403162:	89 ff                	mov    edi,edi
  403164:	48 29 f0             	sub    rax,rsi
  403167:	c6 04 25 a5 71 62 00 	mov    BYTE PTR ds:0x6271a5,0x9f
  40316e:	9f 
  40316f:	fd                   	std    
  403170:	48 f7 e0             	mul    rax
  403173:	48 ff cb             	dec    rbx
  403176:	fc                   	cld    
  403177:	48 f7 eb             	imul   rbx
  40317a:	f9                   	stc    
  40317b:	cc                   	int3   
  40317c:	f7 ef                	imul   edi
  40317e:	51                   	push   rcx
  40317f:	48 c7 c0 27 00 00 00 	mov    rax,0x27
  403186:	0f 05                	syscall 
  403188:	59                   	pop    rcx
  403189:	48 89 c7             	mov    rdi,rax
  40318c:	cc                   	int3   
  40318d:	cc                   	int3   
  40318e:	39 c2                	cmp    edx,eax
  403190:	48 87 fb             	xchg   rbx,rdi
  403193:	cc                   	int3   
  403194:	31 f0                	xor    eax,esi
  403196:	48 f7 df             	neg    rdi
  403199:	cc                   	int3   
  40319a:	31 d0                	xor    eax,edx
  40319c:	48 f7 eb             	imul   rbx
  40319f:	48 ff c7             	inc    rdi
  4031a2:	48 85 c0             	test   rax,rax
  4031a5:	fc                   	cld    
  4031a6:	f8                   	clc    
  4031a7:	48 f7 ef             	imul   rdi
  4031aa:	48 87 d2             	xchg   rdx,rdx
  4031ad:	48 01 c7             	add    rdi,rax
  4031b0:	51                   	push   rcx
  4031b1:	48 c7 c0 6b 00 00 00 	mov    rax,0x6b
  4031b8:	0f 05                	syscall 
  4031ba:	59                   	pop    rcx
  4031bb:	cc                   	int3   
  4031bc:	21 fe                	and    esi,edi
  4031be:	48 89 f7             	mov    rdi,rsi
  4031c1:	fd                   	std    
  4031c2:	f9                   	stc    
  4031c3:	48 f7 db             	neg    rbx
  4031c6:	f9                   	stc    
  4031c7:	48 f7 e3             	mul    rbx
  4031ca:	48 f7 eb             	imul   rbx
  4031cd:	51                   	push   rcx
  4031ce:	48 c7 c0 27 00 00 00 	mov    rax,0x27
  4031d5:	0f 05                	syscall 
  4031d7:	59                   	pop    rcx
  4031d8:	cc                   	int3   
  4031d9:	c6 04 25 b2 71 62 00 	mov    BYTE PTR ds:0x6271b2,0x9e
  4031e0:	9e 
  4031e1:	90                   	nop
  4031e2:	51                   	push   rcx
  4031e3:	cc                   	int3   
  4031e4:	c7 c0 68 00 00 00    	mov    eax,0x68
  4031ea:	0f 05                	syscall 
  4031ec:	cc                   	int3   
  4031ed:	90                   	nop
  4031ee:	48 39 f6             	cmp    rsi,rsi
  4031f1:	51                   	push   rcx
  4031f2:	48 c7 c0 6b 00 00 00 	mov    rax,0x6b
  4031f9:	0f 05                	syscall 
  4031fb:	59                   	pop    rcx
  4031fc:	48 f7 ee             	imul   rsi
  4031ff:	f9                   	stc    
  403200:	48 09 d6             	or     rsi,rdx
  403203:	48 21 d0             	and    rax,rdx
  403206:	f9                   	stc    
  403207:	48 f7 da             	neg    rdx
  40320a:	48 01 c6             	add    rsi,rax
  40320d:	48 85 d6             	test   rsi,rdx
  403210:	cc                   	int3   
  403211:	29 c6                	sub    esi,eax
  403213:	48 ff ca             	dec    rdx
  403216:	48 85 fa             	test   rdx,rdi
  403219:	f9                   	stc    
  40321a:	48 f7 ee             	imul   rsi
  40321d:	cc                   	int3   
  40321e:	48 c7 c0 66 00 00 00 	mov    rax,0x66
  403225:	0f 05                	syscall 
  403227:	59                   	pop    rcx
  403228:	48 f7 da             	neg    rdx
  40322b:	f9                   	stc    
  40322c:	48 01 d6             	add    rsi,rdx
  40322f:	48 09 f2             	or     rdx,rsi
  403232:	48 ff c2             	inc    rdx
  403235:	48 09 fb             	or     rbx,rdi
  403238:	48 87 f3             	xchg   rbx,rsi
  40323b:	48 f7 df             	neg    rdi
  40323e:	fc                   	cld    
  40323f:	48 31 c2             	xor    rdx,rax
  403242:	90                   	nop
  403243:	fc                   	cld    
  403244:	48 f7 ea             	imul   rdx
  403247:	cc                   	int3   
  403248:	01 f6                	add    esi,esi
  40324a:	48 31 d7             	xor    rdi,rdx
  40324d:	fc                   	cld    
  40324e:	48 f7 eb             	imul   rbx
  403251:	48 f7 d8             	neg    rax
  403254:	48 ff c7             	inc    rdi
  403257:	48 89 d7             	mov    rdi,rdx
  40325a:	f9                   	stc    
  40325b:	48 f7 e7             	mul    rdi
  40325e:	48 29 f8             	sub    rax,rdi
  403261:	48 21 c0             	and    rax,rax
  403264:	48 ff c0             	inc    rax
  403267:	fd                   	std    
  403268:	f8                   	clc    
  403269:	48 21 f2             	and    rdx,rsi
  40326c:	48 31 d6             	xor    rsi,rdx
  40326f:	f8                   	clc    
  403270:	fc                   	cld    
  403271:	48 f7 df             	neg    rdi
  403274:	48 f7 db             	neg    rbx
  403277:	48 f7 e0             	mul    rax
  40327a:	fd                   	std    
  40327b:	f9                   	stc    
  40327c:	48 09 c2             	or     rdx,rax
  40327f:	cc                   	int3   
  403280:	39 f2                	cmp    edx,esi
  403282:	cc                   	int3   
  403283:	48 85 d2             	test   rdx,rdx
  403286:	48 21 fe             	and    rsi,rdi
  403289:	48 ff cb             	dec    rbx
  40328c:	90                   	nop
  40328d:	48 85 d2             	test   rdx,rdx
  403290:	fd                   	std    
  403291:	cc                   	int3   
  403292:	21 da                	and    edx,ebx
  403294:	48 f7 ea             	imul   rdx
  403297:	48 31 d3             	xor    rbx,rdx
  40329a:	48 87 f2             	xchg   rdx,rsi
  40329d:	f8                   	clc    
  40329e:	cc                   	int3   
  40329f:	29 c3                	sub    ebx,eax
  4032a1:	fd                   	std    
  4032a2:	48 f7 ee             	imul   rsi
  4032a5:	48 f7 e6             	mul    rsi
  4032a8:	48 97                	xchg   rdi,rax
  4032aa:	90                   	nop
  4032ab:	90                   	nop
  4032ac:	48 39 c2             	cmp    rdx,rax
  4032af:	48 39 fe             	cmp    rsi,rdi
  4032b2:	fc                   	cld    
  4032b3:	48 ff c3             	inc    rbx
  4032b6:	48 ff c7             	inc    rdi
  4032b9:	fc                   	cld    
  4032ba:	48 21 f0             	and    rax,rsi
  4032bd:	48 f7 d8             	neg    rax
  4032c0:	48 09 f8             	or     rax,rdi
  4032c3:	48 f7 df             	neg    rdi
  4032c6:	f9                   	stc    
  4032c7:	48 f7 ea             	imul   rdx
  4032ca:	48 ff ce             	dec    rsi
  4032cd:	f8                   	clc    
  4032ce:	51                   	push   rcx
  4032cf:	48 c7 c0 6e 00 00 00 	mov    rax,0x6e
  4032d6:	0f 05                	syscall 
  4032d8:	59                   	pop    rcx
  4032d9:	fc                   	cld    
  4032da:	f9                   	stc    
  4032db:	f9                   	stc    
  4032dc:	48 09 c7             	or     rdi,rax
  4032df:	48 39 de             	cmp    rsi,rbx
  4032e2:	fd                   	std    
  4032e3:	cc                   	int3   
  4032e4:	89 d6                	mov    esi,edx
  4032e6:	48 f7 ee             	imul   rsi
  4032e9:	48 ff c3             	inc    rbx
  4032ec:	f9                   	stc    
  4032ed:	cc                   	int3   
  4032ee:	ff cf                	dec    edi
  4032f0:	90                   	nop
  4032f1:	f9                   	stc    
  4032f2:	48 f7 df             	neg    rdi
  4032f5:	51                   	push   rcx
  4032f6:	cc                   	int3   
  4032f7:	c7 c0 6f 00 00 00    	mov    eax,0x6f
  4032fd:	0f 05                	syscall 
  4032ff:	59                   	pop    rcx
  403300:	48 ff c8             	dec    rax
  403303:	90                   	nop
  403304:	48 ff c2             	inc    rdx
  403307:	cc                   	int3   
  403308:	f7 e2                	mul    edx
  40330a:	48 f7 eb             	imul   rbx
  40330d:	48 39 db             	cmp    rbx,rbx
  403310:	48 f7 e6             	mul    rsi
  403313:	cc                   	int3   
  403314:	ff c0                	inc    eax
  403316:	90                   	nop
  403317:	48 ff c3             	inc    rbx
  40331a:	48 09 fe             	or     rsi,rdi
  40331d:	48 39 de             	cmp    rsi,rbx
  403320:	48 ff c7             	inc    rdi
  403323:	fd                   	std    
  403324:	48 f7 da             	neg    rdx
  403327:	fd                   	std    
  403328:	cc                   	int3   
  403329:	31 fa                	xor    edx,edi
  40332b:	48 29 c0             	sub    rax,rax
  40332e:	fc                   	cld    
  40332f:	48 39 d2             	cmp    rdx,rdx
  403332:	48 09 d0             	or     rax,rdx
  403335:	f8                   	clc    
  403336:	48 ff cf             	dec    rdi
  403339:	48 ff c7             	inc    rdi
  40333c:	48 89 da             	mov    rdx,rbx
  40333f:	fc                   	cld    
  403340:	f8                   	clc    
  403341:	48 ff cb             	dec    rbx
  403344:	48 09 f0             	or     rax,rsi
  403347:	cc                   	int3   
  403348:	51                   	push   rcx
  403349:	48 c7 c0 6f 00 00 00 	mov    rax,0x6f
  403350:	0f 05                	syscall 
  403352:	59                   	pop    rcx
  403353:	48 ff c3             	inc    rbx
  403356:	48 29 d2             	sub    rdx,rdx
  403359:	f8                   	clc    
  40335a:	48 f7 ee             	imul   rsi
  40335d:	f9                   	stc    
  40335e:	48 f7 e3             	mul    rbx
  403361:	cc                   	int3   
  403362:	48 c7 c0 6c 00 00 00 	mov    rax,0x6c
  403369:	cc                   	int3   
  40336a:	05 cc 48 ff c2       	add    eax,0xc2ff48cc
  40336f:	48 29 d0             	sub    rax,rdx
  403372:	48 f7 ea             	imul   rdx
  403375:	51                   	push   rcx
  403376:	48 c7 c0 6b 00 00 00 	mov    rax,0x6b
  40337d:	0f 05                	syscall 
  40337f:	59                   	pop    rcx
  403380:	90                   	nop
  403381:	48 ff c3             	inc    rbx
  403384:	90                   	nop
  403385:	48 f7 d8             	neg    rax
  403388:	48 f7 e6             	mul    rsi
  40338b:	fd                   	std    
  40338c:	48 f7 e8             	imul   rax
  40338f:	48 f7 ea             	imul   rdx
  403392:	fd                   	std    
  403393:	51                   	push   rcx
  403394:	48 c7 c0 6e 00 00 00 	mov    rax,0x6e
  40339b:	cc                   	int3   
  40339c:	05 59 48 ff c8       	add    eax,0xc8ff4859
  4033a1:	cc                   	int3   
  4033a2:	fc                   	cld    
  4033a3:	48 ff c6             	inc    rsi
  4033a6:	48 01 f6             	add    rsi,rsi
  4033a9:	c6 04 25 92 71 62 00 	mov    BYTE PTR ds:0x627192,0x53
  4033b0:	53 
  4033b1:	48 87 d7             	xchg   rdi,rdx
  4033b4:	f8                   	clc    
  4033b5:	48 ff c8             	dec    rax
  4033b8:	48 29 df             	sub    rdi,rbx
  4033bb:	48 29 f3             	sub    rbx,rsi
  4033be:	fc                   	cld    
  4033bf:	fc                   	cld    
  4033c0:	f8                   	clc    
  4033c1:	cc                   	int3   
  4033c2:	51                   	push   rcx
  4033c3:	48 c7 c0 66 00 00 00 	mov    rax,0x66
  4033ca:	0f 05                	syscall 
  4033cc:	cc                   	int3   
  4033cd:	cc                   	int3   
  4033ce:	87 da                	xchg   edx,ebx
  4033d0:	90                   	nop
  4033d1:	48 f7 eb             	imul   rbx
  4033d4:	48 f7 e2             	mul    rdx
  4033d7:	90                   	nop
  4033d8:	cc                   	int3   
  4033d9:	90                   	nop
  4033da:	48 01 d0             	add    rax,rdx
  4033dd:	fc                   	cld    
  4033de:	f8                   	clc    
  4033df:	f8                   	clc    
  4033e0:	cc                   	int3   
  4033e1:	f7 d8                	neg    eax
  4033e3:	fd                   	std    
  4033e4:	48 01 d7             	add    rdi,rdx
  4033e7:	48 39 d3             	cmp    rbx,rdx
  4033ea:	48 85 c3             	test   rbx,rax
  4033ed:	48 39 d8             	cmp    rax,rbx
  4033f0:	48 f7 ea             	imul   rdx
  4033f3:	48 f7 ee             	imul   rsi
  4033f6:	48 29 c2             	sub    rdx,rax
  4033f9:	51                   	push   rcx
  4033fa:	48 c7 c0 27 00 00 00 	mov    rax,0x27
  403401:	0f 05                	syscall 
  403403:	59                   	pop    rcx
  403404:	cc                   	int3   
  403405:	f7 ef                	imul   edi
  403407:	cc                   	int3   
  403408:	f7 ee                	imul   esi
  40340a:	48 f7 df             	neg    rdi
  40340d:	48 01 d6             	add    rsi,rdx
  403410:	fd                   	std    
  403411:	48 39 c0             	cmp    rax,rax
  403414:	48 ff c7             	inc    rdi
  403417:	48 39 f8             	cmp    rax,rdi
  40341a:	f9                   	stc    
  40341b:	48 ff c7             	inc    rdi
  40341e:	48 39 c7             	cmp    rdi,rax
  403421:	cc                   	int3   
  403422:	f7 e6                	mul    esi
  403424:	f9                   	stc    
  403425:	48 f7 ef             	imul   rdi
  403428:	48 39 f3             	cmp    rbx,rsi
  40342b:	f9                   	stc    
  40342c:	90                   	nop
  40342d:	48 ff ce             	dec    rsi
  403430:	f8                   	clc    
  403431:	cc                   	int3   
  403432:	39 de                	cmp    esi,ebx
  403434:	48 f7 db             	neg    rbx
  403437:	48 31 c7             	xor    rdi,rax
  40343a:	48 39 c7             	cmp    rdi,rax
  40343d:	48 87 da             	xchg   rdx,rbx
  403440:	48 ff c3             	inc    rbx
  403443:	48 ff c0             	inc    rax
  403446:	c6 04 25 cc 71 62 00 	mov    BYTE PTR ds:0x6271cc,0x25
  40344d:	25 
  40344e:	fd                   	std    
  40344f:	f8                   	clc    
  403450:	90                   	nop
  403451:	f8                   	clc    
  403452:	48 39 f8             	cmp    rax,rdi
  403455:	f8                   	clc    
  403456:	48 f7 da             	neg    rdx
  403459:	48 29 c2             	sub    rdx,rax
  40345c:	48 21 fb             	and    rbx,rdi
  40345f:	fc                   	cld    
  403460:	48 f7 ee             	imul   rsi
  403463:	fc                   	cld    
  403464:	48 ff c7             	inc    rdi
  403467:	48 39 f0             	cmp    rax,rsi
  40346a:	51                   	push   rcx
  40346b:	48 c7 c0 6b 00 00 00 	mov    rax,0x6b
  403472:	0f 05                	syscall 
  403474:	59                   	pop    rcx
  403475:	48 f7 e2             	mul    rdx
  403478:	48 21 ff             	and    rdi,rdi
  40347b:	f8                   	clc    
  40347c:	90                   	nop
  40347d:	48 01 c6             	add    rsi,rax
  403480:	48 f7 df             	neg    rdi
  403483:	48 31 d3             	xor    rbx,rdx
  403486:	48 ff cf             	dec    rdi
  403489:	48 89 f0             	mov    rax,rsi
  40348c:	48 f7 e6             	mul    rsi
  40348f:	48 09 de             	or     rsi,rbx
  403492:	51                   	push   rcx
  403493:	48 c7 c0 27 00 00 00 	mov    rax,0x27
  40349a:	0f 05                	syscall 
  40349c:	59                   	pop    rcx
  40349d:	f8                   	clc    
  40349e:	cc                   	int3   
  40349f:	31 f7                	xor    edi,esi
  4034a1:	48 39 f6             	cmp    rsi,rsi
  4034a4:	48 ff c7             	inc    rdi
  4034a7:	48 ff c3             	inc    rbx
  4034aa:	f8                   	clc    
  4034ab:	48 ff ce             	dec    rsi
  4034ae:	48 f7 e0             	mul    rax
  4034b1:	48 39 fb             	cmp    rbx,rdi
  4034b4:	fd                   	std    
  4034b5:	48 29 d6             	sub    rsi,rdx
  4034b8:	48 ff c6             	inc    rsi
  4034bb:	48 85 f7             	test   rdi,rsi
  4034be:	fc                   	cld    
  4034bf:	48 ff ca             	dec    rdx
  4034c2:	48 21 f6             	and    rsi,rsi
  4034c5:	fd                   	std    
  4034c6:	48 31 f6             	xor    rsi,rsi
  4034c9:	fc                   	cld    
  4034ca:	f8                   	clc    
  4034cb:	cc                   	int3   
  4034cc:	fc                   	cld    
  4034cd:	f9                   	stc    
  4034ce:	f8                   	clc    
  4034cf:	90                   	nop
  4034d0:	48 ff c3             	inc    rbx
  4034d3:	48 f7 e6             	mul    rsi
  4034d6:	48 29 fb             	sub    rbx,rdi
  4034d9:	48 21 c7             	and    rdi,rax
  4034dc:	48 29 c0             	sub    rax,rax
  4034df:	48 29 d0             	sub    rax,rdx
  4034e2:	48 f7 e2             	mul    rdx
  4034e5:	48 f7 e3             	mul    rbx
  4034e8:	48 21 db             	and    rbx,rbx
  4034eb:	c6 04 25 b3 71 62 00 	mov    BYTE PTR ds:0x6271b3,0x68
  4034f2:	68 
  4034f3:	90                   	nop
  4034f4:	48 ff c3             	inc    rbx
  4034f7:	f8                   	clc    
  4034f8:	90                   	nop
  4034f9:	48 ff c2             	inc    rdx
  4034fc:	f9                   	stc    
  4034fd:	fc                   	cld    
  4034fe:	48 f7 ef             	imul   rdi
  403501:	48 f7 e0             	mul    rax
  403504:	48 87 de             	xchg   rsi,rbx
  403507:	f8                   	clc    
  403508:	fd                   	std    
  403509:	51                   	push   rcx
  40350a:	48 c7 c0 6c 00 00 00 	mov    rax,0x6c
  403511:	0f 05                	syscall 
  403513:	59                   	pop    rcx
  403514:	48 f7 de             	neg    rsi
  403517:	fd                   	std    
  403518:	48 31 de             	xor    rsi,rbx
  40351b:	48 39 c3             	cmp    rbx,rax
  40351e:	f9                   	stc    
  40351f:	48 85 fe             	test   rsi,rdi
  403522:	f9                   	stc    
  403523:	48 39 db             	cmp    rbx,rbx
  403526:	48 31 d6             	xor    rsi,rdx
  403529:	c6 04 25 c9 71 62 00 	mov    BYTE PTR ds:0x6271c9,0x32
  403530:	32 
  403531:	48 85 fb             	test   rbx,rdi
  403534:	fd                   	std    
  403535:	48 ff ca             	dec    rdx
  403538:	48 09 db             	or     rbx,rbx
  40353b:	48 31 f7             	xor    rdi,rsi
  40353e:	c6 04 25 c0 71 62 00 	mov    BYTE PTR ds:0x6271c0,0xd0
  403545:	d0 
  403546:	48 85 fa             	test   rdx,rdi
  403549:	48 ff c7             	inc    rdi
  40354c:	48 29 fa             	sub    rdx,rdi
  40354f:	48 f7 e6             	mul    rsi
  403552:	48 f7 eb             	imul   rbx
  403555:	48 31 ff             	xor    rdi,rdi
  403558:	48 ff ce             	dec    rsi
  40355b:	48 39 ff             	cmp    rdi,rdi
  40355e:	f8                   	clc    
  40355f:	48 87 fa             	xchg   rdx,rdi
  403562:	48 39 c0             	cmp    rax,rax
  403565:	90                   	nop
  403566:	48 87 fe             	xchg   rsi,rdi
  403569:	cc                   	int3   
  40356a:	31 d0                	xor    eax,edx
  40356c:	cc                   	int3   
  40356d:	01 c3                	add    ebx,eax
  40356f:	48 01 c0             	add    rax,rax
  403572:	51                   	push   rcx
  403573:	cc                   	int3   
  403574:	c7 c0 27 00 00 00    	mov    eax,0x27
  40357a:	0f 05                	syscall 
  40357c:	59                   	pop    rcx
  40357d:	cc                   	int3   
  40357e:	48 ff c8             	dec    rax
  403581:	c6 04 25 96 71 62 00 	mov    BYTE PTR ds:0x627196,0xe8
  403588:	e8 
  403589:	48 31 d2             	xor    rdx,rdx
  40358c:	48 ff c6             	inc    rsi
  40358f:	48 f7 ee             	imul   rsi
  403592:	90                   	nop
  403593:	fd                   	std    
  403594:	48 f7 eb             	imul   rbx
  403597:	48 01 c0             	add    rax,rax
  40359a:	48 f7 e3             	mul    rbx
  40359d:	48 ff cb             	dec    rbx
  4035a0:	48 89 c3             	mov    rbx,rax
  4035a3:	48 21 fb             	and    rbx,rdi
  4035a6:	90                   	nop
  4035a7:	cc                   	int3   
  4035a8:	48 01 db             	add    rbx,rbx
  4035ab:	48 09 da             	or     rdx,rbx
  4035ae:	51                   	push   rcx
  4035af:	48 c7 c0 18 00 00 00 	mov    rax,0x18
  4035b6:	0f 05                	syscall 
  4035b8:	59                   	pop    rcx
  4035b9:	cc                   	int3   
  4035ba:	f7 e0                	mul    eax
  4035bc:	48 85 f7             	test   rdi,rsi
  4035bf:	48 f7 e0             	mul    rax
  4035c2:	48 31 d0             	xor    rax,rdx
  4035c5:	48 f7 e2             	mul    rdx
  4035c8:	48 ff ce             	dec    rsi
  4035cb:	fc                   	cld    
  4035cc:	f9                   	stc    
  4035cd:	cc                   	int3   
  4035ce:	87 f2                	xchg   edx,esi
  4035d0:	51                   	push   rcx
  4035d1:	cc                   	int3   
  4035d2:	c7 c0 66 00 00 00    	mov    eax,0x66
  4035d8:	0f 05                	syscall 
  4035da:	59                   	pop    rcx
  4035db:	90                   	nop
  4035dc:	48 09 d6             	or     rsi,rdx
  4035df:	48 93                	xchg   rbx,rax
  4035e1:	f9                   	stc    
  4035e2:	48 ff c2             	inc    rdx
  4035e5:	48 89 f7             	mov    rdi,rsi
  4035e8:	48 f7 e2             	mul    rdx
  4035eb:	48 09 d8             	or     rax,rbx
  4035ee:	48 29 f3             	sub    rbx,rsi
  4035f1:	fc                   	cld    
  4035f2:	48 09 f7             	or     rdi,rsi
  4035f5:	48 f7 de             	neg    rsi
  4035f8:	48 97                	xchg   rdi,rax
  4035fa:	fc                   	cld    
  4035fb:	51                   	push   rcx
  4035fc:	48 c7 c0 6b 00 00 00 	mov    rax,0x6b
  403603:	0f 05                	syscall 
  403605:	59                   	pop    rcx
  403606:	48 ff c0             	inc    rax
  403609:	48 01 f8             	add    rax,rdi
  40360c:	48 ff c0             	inc    rax
  40360f:	48 31 f0             	xor    rax,rsi
  403612:	fc                   	cld    
  403613:	48 09 de             	or     rsi,rbx
  403616:	48 ff c3             	inc    rbx
  403619:	fc                   	cld    
  40361a:	fc                   	cld    
  40361b:	48 31 d6             	xor    rsi,rdx
  40361e:	48 f7 e2             	mul    rdx
  403621:	48 21 c3             	and    rbx,rax
  403624:	90                   	nop
  403625:	48 ff ce             	dec    rsi
  403628:	48 29 d0             	sub    rax,rdx
  40362b:	48 21 fe             	and    rsi,rdi
  40362e:	f9                   	stc    
  40362f:	48 f7 e8             	imul   rax
  403632:	fc                   	cld    
  403633:	cc                   	int3   
  403634:	f7 d8                	neg    eax
  403636:	90                   	nop
  403637:	fd                   	std    
  403638:	48 f7 e3             	mul    rbx
  40363b:	48 ff c6             	inc    rsi
  40363e:	48 ff c6             	inc    rsi
  403641:	f9                   	stc    
  403642:	51                   	push   rcx
  403643:	48 c7 c0 18 00 00 00 	mov    rax,0x18
  40364a:	0f 05                	syscall 
  40364c:	59                   	pop    rcx
  40364d:	48 f7 e0             	mul    rax
  403650:	48 f7 e0             	mul    rax
  403653:	48 89 f6             	mov    rsi,rsi
  403656:	fc                   	cld    
  403657:	f9                   	stc    
  403658:	48 f7 e7             	mul    rdi
  40365b:	c6 04 25 97 71 62 00 	mov    BYTE PTR ds:0x627197,0xd1
  403662:	d1 
  403663:	fd                   	std    
  403664:	48 f7 e8             	imul   rax
  403667:	f8                   	clc    
  403668:	48 87 df             	xchg   rdi,rbx
  40366b:	48 21 d7             	and    rdi,rdx
  40366e:	fd                   	std    
